
program.out:	file format mach-o arm64

Disassembly of section __TEXT,__text:

00000001000004e8 <_main>:
1000004e8: d10143ff    	sub	sp, sp, #0x50
1000004ec: a90257f6    	stp	x22, x21, [sp, #0x20]
1000004f0: a9034ff4    	stp	x20, x19, [sp, #0x30]
1000004f4: a9047bfd    	stp	x29, x30, [sp, #0x40]
1000004f8: 910103fd    	add	x29, sp, #0x40
1000004fc: f9400434    	ldr	x20, [x1, #0x8]
100000500: aa1403e0    	mov	x0, x20
100000504: 94000531    	bl	0x1000019c8 <_strlen+0x1000019c8>
100000508: b27defe8    	mov	x8, #0x7ffffffffffffff8 ; =9223372036854775800
10000050c: eb08001f    	cmp	x0, x8
100000510: 54000522    	b.hs	0x1000005b4 <_main+0xcc>
100000514: aa0003f3    	mov	x19, x0
100000518: f1005c1f    	cmp	x0, #0x17
10000051c: 540000a2    	b.hs	0x100000530 <_main+0x48>
100000520: 39007ff3    	strb	w19, [sp, #0x1f]
100000524: 910023f5    	add	x21, sp, #0x8
100000528: b5000193    	cbnz	x19, 0x100000558 <_main+0x70>
10000052c: 1400000f    	b	0x100000568 <_main+0x80>
100000530: b2400a68    	orr	x8, x19, #0x7
100000534: f1005d1f    	cmp	x8, #0x17
100000538: 52800329    	mov	w9, #0x19               ; =25
10000053c: 9a880536    	csinc	x22, x9, x8, eq
100000540: aa1603e0    	mov	x0, x22
100000544: 94000509    	bl	0x100001968 <_strlen+0x100001968>
100000548: aa0003f5    	mov	x21, x0
10000054c: b24102c8    	orr	x8, x22, #0x8000000000000000
100000550: a90123f3    	stp	x19, x8, [sp, #0x10]
100000554: f90007e0    	str	x0, [sp, #0x8]
100000558: aa1503e0    	mov	x0, x21
10000055c: aa1403e1    	mov	x1, x20
100000560: aa1303e2    	mov	x2, x19
100000564: 94000513    	bl	0x1000019b0 <_strlen+0x1000019b0>
100000568: 38336abf    	strb	wzr, [x21, x19]
10000056c: 910023e0    	add	x0, sp, #0x8
100000570: d2800001    	mov	x1, #0x0                ; =0
100000574: 52800142    	mov	w2, #0xa                ; =10
100000578: 940004f3    	bl	0x100001944 <_strlen+0x100001944>
10000057c: 39c07fe8    	ldrsb	w8, [sp, #0x1f]
100000580: 36f800c8    	tbz	w8, #0x1f, 0x100000598 <_main+0xb0>
100000584: f94007e8    	ldr	x8, [sp, #0x8]
100000588: aa0003f3    	mov	x19, x0
10000058c: aa0803e0    	mov	x0, x8
100000590: 940004f3    	bl	0x10000195c <_strlen+0x10000195c>
100000594: aa1303e0    	mov	x0, x19
100000598: 9400000f    	bl	0x1000005d4 <__Z4testIfEvj>
10000059c: 52800000    	mov	w0, #0x0                ; =0
1000005a0: a9447bfd    	ldp	x29, x30, [sp, #0x40]
1000005a4: a9434ff4    	ldp	x20, x19, [sp, #0x30]
1000005a8: a94257f6    	ldp	x22, x21, [sp, #0x20]
1000005ac: 910143ff    	add	sp, sp, #0x50
1000005b0: d65f03c0    	ret
1000005b4: 940004b9    	bl	0x100001898 <__ZNSt3__112basic_stringIcNS_11char_traitsIcEENS_9allocatorIcEEE20__throw_length_errorB8ne200100Ev>
1000005b8: aa0003f3    	mov	x19, x0
1000005bc: 39c07fe8    	ldrsb	w8, [sp, #0x1f]
1000005c0: 36f80068    	tbz	w8, #0x1f, 0x1000005cc <_main+0xe4>
1000005c4: f94007e0    	ldr	x0, [sp, #0x8]
1000005c8: 940004e5    	bl	0x10000195c <_strlen+0x10000195c>
1000005cc: aa1303e0    	mov	x0, x19
1000005d0: 940004d4    	bl	0x100001920 <_strlen+0x100001920>

00000001000005d4 <__Z4testIfEvj>:
1000005d4: d10183ff    	sub	sp, sp, #0x60
1000005d8: a90167fa    	stp	x26, x25, [sp, #0x10]
1000005dc: a9025ff8    	stp	x24, x23, [sp, #0x20]
1000005e0: a90357f6    	stp	x22, x21, [sp, #0x30]
1000005e4: a9044ff4    	stp	x20, x19, [sp, #0x40]
1000005e8: a9057bfd    	stp	x29, x30, [sp, #0x50]
1000005ec: 910143fd    	add	x29, sp, #0x50
1000005f0: aa0003f6    	mov	x22, x0
1000005f4: d37e7c08    	ubfiz	x8, x0, #2, #32
1000005f8: 91003d14    	add	x20, x8, #0xf
1000005fc: 927c7a81    	and	x1, x20, #0x7fffffff0
100000600: 52800200    	mov	w0, #0x10               ; =16
100000604: 940004e5    	bl	0x100001998 <_strlen+0x100001998>
100000608: aa0003f3    	mov	x19, x0
10000060c: 340003b6    	cbz	w22, 0x100000680 <__Z4testIfEvj+0xac>
100000610: 2a1603f7    	mov	w23, w22
100000614: 91061278    	add	x24, x19, #0x184
100000618: aa1703f5    	mov	x21, x23
10000061c: aa1303f9    	mov	x25, x19
100000620: 940004e7    	bl	0x1000019bc <_strlen+0x1000019bc>
100000624: 1e028400    	scvtf	s0, w0, #0x1f
100000628: bc004720    	str	s0, [x25], #0x4
10000062c: f10006b5    	subs	x21, x21, #0x1
100000630: 54ffff81    	b.ne	0x100000620 <__Z4testIfEvj+0x4c>
100000634: 927c7a81    	and	x1, x20, #0x7fffffff0
100000638: 52800200    	mov	w0, #0x10               ; =16
10000063c: 940004d7    	bl	0x100001998 <_strlen+0x100001998>
100000640: aa0003f4    	mov	x20, x0
100000644: 91061019    	add	x25, x0, #0x184
100000648: d37ef6fa    	lsl	x26, x23, #2
10000064c: 940004dc    	bl	0x1000019bc <_strlen+0x1000019bc>
100000650: 1e028400    	scvtf	s0, w0, #0x1f
100000654: bc356a80    	str	s0, [x20, x21]
100000658: 910012b5    	add	x21, x21, #0x4
10000065c: eb15035f    	cmp	x26, x21
100000660: 54ffff61    	b.ne	0x10000064c <__Z4testIfEvj+0x78>
100000664: 940004bb    	bl	0x100001950 <_strlen+0x100001950>
100000668: aa0003f5    	mov	x21, x0
10000066c: 710046df    	cmp	w22, #0x11
100000670: 54000182    	b.hs	0x1000006a0 <__Z4testIfEvj+0xcc>
100000674: d280000a    	mov	x10, #0x0               ; =0
100000678: 2f00e402    	movi	d2, #0000000000000000
10000067c: 14000086    	b	0x100000894 <__Z4testIfEvj+0x2c0>
100000680: 927c7a81    	and	x1, x20, #0x7fffffff0
100000684: 52800200    	mov	w0, #0x10               ; =16
100000688: 940004c4    	bl	0x100001998 <_strlen+0x100001998>
10000068c: aa0003f4    	mov	x20, x0
100000690: 940004b0    	bl	0x100001950 <_strlen+0x100001950>
100000694: 2f00e402    	movi	d2, #0000000000000000
100000698: aa0003f5    	mov	x21, x0
10000069c: 14000466    	b	0x100001834 <__Z4testIfEvj+0x1260>
1000006a0: d10006eb    	sub	x11, x23, #0x1
1000006a4: d343fd68    	lsr	x8, x11, #3
1000006a8: 9100050a    	add	x10, x8, #0x1
1000006ac: 710206df    	cmp	w22, #0x81
1000006b0: 54000082    	b.hs	0x1000006c0 <__Z4testIfEvj+0xec>
1000006b4: d2800009    	mov	x9, #0x0                ; =0
1000006b8: 2f00e402    	movi	d2, #0000000000000000
1000006bc: 1400005e    	b	0x100000834 <__Z4testIfEvj+0x260>
1000006c0: f2400d49    	ands	x9, x10, #0xf
1000006c4: 5280020c    	mov	w12, #0x10              ; =16
1000006c8: 9a89018c    	csel	x12, x12, x9, eq
1000006cc: cb0c0149    	sub	x9, x10, x12
1000006d0: 9104028d    	add	x13, x20, #0x100
1000006d4: 9104026e    	add	x14, x19, #0x100
1000006d8: 6f00e400    	movi.2d	v0, #0000000000000000
1000006dc: aa0a03ef    	mov	x15, x10
1000006e0: 6f00e401    	movi.2d	v1, #0000000000000000
1000006e4: 6f00e402    	movi.2d	v2, #0000000000000000
1000006e8: 6f00e403    	movi.2d	v3, #0000000000000000
1000006ec: 3cd001c4    	ldur	q4, [x14, #-0x100]
1000006f0: 3cd201c5    	ldur	q5, [x14, #-0xe0]
1000006f4: 3cd401c6    	ldur	q6, [x14, #-0xc0]
1000006f8: 3cd601c7    	ldur	q7, [x14, #-0xa0]
1000006fc: 3cd801d0    	ldur	q16, [x14, #-0x80]
100000700: 3cda01d1    	ldur	q17, [x14, #-0x60]
100000704: 3cdc01d2    	ldur	q18, [x14, #-0x40]
100000708: 3cde01d3    	ldur	q19, [x14, #-0x20]
10000070c: 3cd601b4    	ldur	q20, [x13, #-0xa0]
100000710: 6e27de87    	fmul.4s	v7, v20, v7
100000714: 3cd401b4    	ldur	q20, [x13, #-0xc0]
100000718: 6e26de86    	fmul.4s	v6, v20, v6
10000071c: 3cd201b4    	ldur	q20, [x13, #-0xe0]
100000720: 6e25de85    	fmul.4s	v5, v20, v5
100000724: 3cd001b4    	ldur	q20, [x13, #-0x100]
100000728: 6e24de84    	fmul.4s	v4, v20, v4
10000072c: 3dc001d4    	ldr	q20, [x14]
100000730: 4e853884    	zip1.4s	v4, v4, v5
100000734: 3dc009c5    	ldr	q5, [x14, #0x20]
100000738: 4e8738c7    	zip1.4s	v7, v6, v7
10000073c: 6e0740c6    	ext.16b	v6, v6, v7, #0x8
100000740: 3dc011c7    	ldr	q7, [x14, #0x40]
100000744: 6e1844c4    	mov.d	v4[1], v6[1]
100000748: 3cde01a6    	ldur	q6, [x13, #-0x20]
10000074c: 6e33dcc6    	fmul.4s	v6, v6, v19
100000750: 3cdc01b3    	ldur	q19, [x13, #-0x40]
100000754: 6e32de72    	fmul.4s	v18, v19, v18
100000758: 3cda01b3    	ldur	q19, [x13, #-0x60]
10000075c: 6e31de71    	fmul.4s	v17, v19, v17
100000760: 3cd801b3    	ldur	q19, [x13, #-0x80]
100000764: 6e30de70    	fmul.4s	v16, v19, v16
100000768: 3dc019d3    	ldr	q19, [x14, #0x60]
10000076c: 4e913a10    	zip1.4s	v16, v16, v17
100000770: 3dc021d1    	ldr	q17, [x14, #0x80]
100000774: 4e863a46    	zip1.4s	v6, v18, v6
100000778: 6e064246    	ext.16b	v6, v18, v6, #0x8
10000077c: 3dc029d2    	ldr	q18, [x14, #0xa0]
100000780: 6e1844d0    	mov.d	v16[1], v6[1]
100000784: 3dc019a6    	ldr	q6, [x13, #0x60]
100000788: 6e33dcc6    	fmul.4s	v6, v6, v19
10000078c: 3dc011b3    	ldr	q19, [x13, #0x40]
100000790: 6e27de67    	fmul.4s	v7, v19, v7
100000794: 3dc009b3    	ldr	q19, [x13, #0x20]
100000798: 6e25de65    	fmul.4s	v5, v19, v5
10000079c: 3dc001b3    	ldr	q19, [x13]
1000007a0: 6e34de73    	fmul.4s	v19, v19, v20
1000007a4: 3dc031d4    	ldr	q20, [x14, #0xc0]
1000007a8: 4e853a65    	zip1.4s	v5, v19, v5
1000007ac: 3dc039d3    	ldr	q19, [x14, #0xe0]
1000007b0: 4e8638e6    	zip1.4s	v6, v7, v6
1000007b4: 6e0640e6    	ext.16b	v6, v7, v6, #0x8
1000007b8: 3dc039a7    	ldr	q7, [x13, #0xe0]
1000007bc: 6e33dce7    	fmul.4s	v7, v7, v19
1000007c0: 3dc031b3    	ldr	q19, [x13, #0xc0]
1000007c4: 6e34de73    	fmul.4s	v19, v19, v20
1000007c8: 3dc029b4    	ldr	q20, [x13, #0xa0]
1000007cc: 6e32de92    	fmul.4s	v18, v20, v18
1000007d0: 3dc021b4    	ldr	q20, [x13, #0x80]
1000007d4: 6e31de91    	fmul.4s	v17, v20, v17
1000007d8: 4e923a31    	zip1.4s	v17, v17, v18
1000007dc: 6e1844c5    	mov.d	v5[1], v6[1]
1000007e0: 4e873a66    	zip1.4s	v6, v19, v7
1000007e4: 6e064266    	ext.16b	v6, v19, v6, #0x8
1000007e8: 6e1844d1    	mov.d	v17[1], v6[1]
1000007ec: 4e24d400    	fadd.4s	v0, v0, v4
1000007f0: 4e30d421    	fadd.4s	v1, v1, v16
1000007f4: 4e25d442    	fadd.4s	v2, v2, v5
1000007f8: 4e31d463    	fadd.4s	v3, v3, v17
1000007fc: d10041ef    	sub	x15, x15, #0x10
100000800: 910801ad    	add	x13, x13, #0x200
100000804: 910801ce    	add	x14, x14, #0x200
100000808: eb0f019f    	cmp	x12, x15
10000080c: 54fff701    	b.ne	0x1000006ec <__Z4testIfEvj+0x118>
100000810: 4e20d420    	fadd.4s	v0, v1, v0
100000814: 4e20d440    	fadd.4s	v0, v2, v0
100000818: 4e20d460    	fadd.4s	v0, v3, v0
10000081c: 6e20d400    	faddp.4s	v0, v0, v0
100000820: 7e30d802    	faddp.2s	s2, v0
100000824: f100099f    	cmp	x12, #0x2
100000828: 54000068    	b.hi	0x100000834 <__Z4testIfEvj+0x260>
10000082c: d37df12a    	lsl	x10, x9, #3
100000830: 14000019    	b	0x100000894 <__Z4testIfEvj+0x2c0>
100000834: f27d017f    	tst	x11, #0x8
100000838: 9280002b    	mov	x11, #-0x2              ; =-2
10000083c: 9a8b156d    	cinc	x13, x11, eq
100000840: 8b0a01aa    	add	x10, x13, x10
100000844: d37df14a    	lsl	x10, x10, #3
100000848: 2f00e400    	movi	d0, #0000000000000000
10000084c: 6e040440    	mov.s	v0[0], v2[0]
100000850: d37be92c    	lsl	x12, x9, #5
100000854: 8b0c026b    	add	x11, x19, x12
100000858: 8b0c028c    	add	x12, x20, x12
10000085c: 8b0801a8    	add	x8, x13, x8
100000860: cb090108    	sub	x8, x8, x9
100000864: 91000508    	add	x8, x8, #0x1
100000868: fd401161    	ldr	d1, [x11, #0x20]
10000086c: fd401182    	ldr	d2, [x12, #0x20]
100000870: 2e21dc41    	fmul.2s	v1, v2, v1
100000874: fc440562    	ldr	d2, [x11], #0x40
100000878: fc440583    	ldr	d3, [x12], #0x40
10000087c: 2e22dc62    	fmul.2s	v2, v3, v2
100000880: 0e813841    	zip1.2s	v1, v2, v1
100000884: 0e21d400    	fadd.2s	v0, v0, v1
100000888: f1000908    	subs	x8, x8, #0x2
10000088c: 54fffee1    	b.ne	0x100000868 <__Z4testIfEvj+0x294>
100000890: 7e30d802    	faddp.2s	s2, v0
100000894: bc6a7a60    	ldr	s0, [x19, x10, lsl #2]
100000898: bc6a7a81    	ldr	s1, [x20, x10, lsl #2]
10000089c: 1f000822    	fmadd	s2, s1, s0, s2
1000008a0: 9100214a    	add	x10, x10, #0x8
1000008a4: eb17015f    	cmp	x10, x23
1000008a8: 54ffff63    	b.lo	0x100000894 <__Z4testIfEvj+0x2c0>
1000008ac: 710006df    	cmp	w22, #0x1
1000008b0: 54007c20    	b.eq	0x100001834 <__Z4testIfEvj+0x1260>
1000008b4: d1000aea    	sub	x10, x23, #0x2
1000008b8: f100415f    	cmp	x10, #0x10
1000008bc: 54000062    	b.hs	0x1000008c8 <__Z4testIfEvj+0x2f4>
1000008c0: 5280002a    	mov	w10, #0x1               ; =1
1000008c4: 14000082    	b	0x100000acc <__Z4testIfEvj+0x4f8>
1000008c8: d343fd48    	lsr	x8, x10, #3
1000008cc: 9100050b    	add	x11, x8, #0x1
1000008d0: f102015f    	cmp	x10, #0x80
1000008d4: 54000062    	b.hs	0x1000008e0 <__Z4testIfEvj+0x30c>
1000008d8: d2800009    	mov	x9, #0x0                ; =0
1000008dc: 14000062    	b	0x100000a64 <__Z4testIfEvj+0x490>
1000008e0: f2400d69    	ands	x9, x11, #0xf
1000008e4: 5280020c    	mov	w12, #0x10              ; =16
1000008e8: 9a89018c    	csel	x12, x12, x9, eq
1000008ec: cb0c0169    	sub	x9, x11, x12
1000008f0: 6f00e400    	movi.2d	v0, #0000000000000000
1000008f4: 6e040440    	mov.s	v0[0], v2[0]
1000008f8: 6f00e401    	movi.2d	v1, #0000000000000000
1000008fc: aa1803ed    	mov	x13, x24
100000900: aa0b03ee    	mov	x14, x11
100000904: aa1903ef    	mov	x15, x25
100000908: 6f00e402    	movi.2d	v2, #0000000000000000
10000090c: 6f00e403    	movi.2d	v3, #0000000000000000
100000910: d10601b0    	sub	x16, x13, #0x180
100000914: 3dc00204    	ldr	q4, [x16]
100000918: 3dc00a05    	ldr	q5, [x16, #0x20]
10000091c: 3dc01206    	ldr	q6, [x16, #0x40]
100000920: 3dc01a07    	ldr	q7, [x16, #0x60]
100000924: 3cd001b0    	ldur	q16, [x13, #-0x100]
100000928: 3cd201b1    	ldur	q17, [x13, #-0xe0]
10000092c: 3cd401b2    	ldur	q18, [x13, #-0xc0]
100000930: d10601f0    	sub	x16, x15, #0x180
100000934: 3dc01a13    	ldr	q19, [x16, #0x60]
100000938: 6e27de67    	fmul.4s	v7, v19, v7
10000093c: 3dc01213    	ldr	q19, [x16, #0x40]
100000940: 6e26de66    	fmul.4s	v6, v19, v6
100000944: 3dc00a13    	ldr	q19, [x16, #0x20]
100000948: 6e25de65    	fmul.4s	v5, v19, v5
10000094c: 3dc00213    	ldr	q19, [x16]
100000950: 6e24de64    	fmul.4s	v4, v19, v4
100000954: 3cd601b3    	ldur	q19, [x13, #-0xa0]
100000958: 4e853884    	zip1.4s	v4, v4, v5
10000095c: 3cd801a5    	ldur	q5, [x13, #-0x80]
100000960: 4e8738c7    	zip1.4s	v7, v6, v7
100000964: 6e0740c6    	ext.16b	v6, v6, v7, #0x8
100000968: 6e1844c4    	mov.d	v4[1], v6[1]
10000096c: 3cda01a6    	ldur	q6, [x13, #-0x60]
100000970: 3cd601e7    	ldur	q7, [x15, #-0xa0]
100000974: 6e33dce7    	fmul.4s	v7, v7, v19
100000978: 3cd401f3    	ldur	q19, [x15, #-0xc0]
10000097c: 6e32de72    	fmul.4s	v18, v19, v18
100000980: 3cd201f3    	ldur	q19, [x15, #-0xe0]
100000984: 6e31de71    	fmul.4s	v17, v19, v17
100000988: 3cd001f3    	ldur	q19, [x15, #-0x100]
10000098c: 6e30de70    	fmul.4s	v16, v19, v16
100000990: 3cdc01b3    	ldur	q19, [x13, #-0x40]
100000994: 4e913a10    	zip1.4s	v16, v16, v17
100000998: 3cde01b1    	ldur	q17, [x13, #-0x20]
10000099c: 4e873a47    	zip1.4s	v7, v18, v7
1000009a0: 6e074247    	ext.16b	v7, v18, v7, #0x8
1000009a4: 3dc001b2    	ldr	q18, [x13]
1000009a8: 6e1844f0    	mov.d	v16[1], v7[1]
1000009ac: 3cde01e7    	ldur	q7, [x15, #-0x20]
1000009b0: 6e31dce7    	fmul.4s	v7, v7, v17
1000009b4: 3cdc01f1    	ldur	q17, [x15, #-0x40]
1000009b8: 6e33de31    	fmul.4s	v17, v17, v19
1000009bc: 3cda01f3    	ldur	q19, [x15, #-0x60]
1000009c0: 6e26de66    	fmul.4s	v6, v19, v6
1000009c4: 3cd801f3    	ldur	q19, [x15, #-0x80]
1000009c8: 6e25de65    	fmul.4s	v5, v19, v5
1000009cc: 3dc009b3    	ldr	q19, [x13, #0x20]
1000009d0: 4e8638a5    	zip1.4s	v5, v5, v6
1000009d4: 3dc011a6    	ldr	q6, [x13, #0x40]
1000009d8: 4e873a27    	zip1.4s	v7, v17, v7
1000009dc: 6e074227    	ext.16b	v7, v17, v7, #0x8
1000009e0: 3dc019b1    	ldr	q17, [x13, #0x60]
1000009e4: 6e1844e5    	mov.d	v5[1], v7[1]
1000009e8: 3dc019e7    	ldr	q7, [x15, #0x60]
1000009ec: 6e31dce7    	fmul.4s	v7, v7, v17
1000009f0: 3dc011f1    	ldr	q17, [x15, #0x40]
1000009f4: 6e26de26    	fmul.4s	v6, v17, v6
1000009f8: 3dc009f1    	ldr	q17, [x15, #0x20]
1000009fc: 6e33de31    	fmul.4s	v17, v17, v19
100000a00: 3dc001f3    	ldr	q19, [x15]
100000a04: 6e32de72    	fmul.4s	v18, v19, v18
100000a08: 4e913a51    	zip1.4s	v17, v18, v17
100000a0c: 4e8738c7    	zip1.4s	v7, v6, v7
100000a10: 6e0740c6    	ext.16b	v6, v6, v7, #0x8
100000a14: 6e1844d1    	mov.d	v17[1], v6[1]
100000a18: 4e24d400    	fadd.4s	v0, v0, v4
100000a1c: 4e30d421    	fadd.4s	v1, v1, v16
100000a20: 4e25d442    	fadd.4s	v2, v2, v5
100000a24: 4e31d463    	fadd.4s	v3, v3, v17
100000a28: 910801ef    	add	x15, x15, #0x200
100000a2c: d10041ce    	sub	x14, x14, #0x10
100000a30: 910801ad    	add	x13, x13, #0x200
100000a34: eb0e019f    	cmp	x12, x14
100000a38: 54fff6c1    	b.ne	0x100000910 <__Z4testIfEvj+0x33c>
100000a3c: 4e20d420    	fadd.4s	v0, v1, v0
100000a40: 4e20d440    	fadd.4s	v0, v2, v0
100000a44: 4e20d460    	fadd.4s	v0, v3, v0
100000a48: 6e20d400    	faddp.4s	v0, v0, v0
100000a4c: 7e30d802    	faddp.2s	s2, v0
100000a50: f1000d9f    	cmp	x12, #0x3
100000a54: 54000082    	b.hs	0x100000a64 <__Z4testIfEvj+0x490>
100000a58: 52800028    	mov	w8, #0x1                ; =1
100000a5c: aa090d0a    	orr	x10, x8, x9, lsl #3
100000a60: 1400001b    	b	0x100000acc <__Z4testIfEvj+0x4f8>
100000a64: f27d015f    	tst	x10, #0x8
100000a68: 9280002a    	mov	x10, #-0x2              ; =-2
100000a6c: 9a8a154d    	cinc	x13, x10, eq
100000a70: 8b0b01aa    	add	x10, x13, x11
100000a74: 5280002b    	mov	w11, #0x1               ; =1
100000a78: aa0a0d6a    	orr	x10, x11, x10, lsl #3
100000a7c: 2f00e400    	movi	d0, #0000000000000000
100000a80: 6e040440    	mov.s	v0[0], v2[0]
100000a84: 5280008b    	mov	w11, #0x4               ; =4
100000a88: aa09156c    	orr	x12, x11, x9, lsl #5
100000a8c: 8b0c028b    	add	x11, x20, x12
100000a90: 8b0c026c    	add	x12, x19, x12
100000a94: 8b0801a8    	add	x8, x13, x8
100000a98: cb090108    	sub	x8, x8, x9
100000a9c: 91000508    	add	x8, x8, #0x1
100000aa0: fd401181    	ldr	d1, [x12, #0x20]
100000aa4: fd401162    	ldr	d2, [x11, #0x20]
100000aa8: 2e21dc41    	fmul.2s	v1, v2, v1
100000aac: fc440582    	ldr	d2, [x12], #0x40
100000ab0: fc440563    	ldr	d3, [x11], #0x40
100000ab4: 2e22dc62    	fmul.2s	v2, v3, v2
100000ab8: 0e813841    	zip1.2s	v1, v2, v1
100000abc: 0e21d400    	fadd.2s	v0, v0, v1
100000ac0: f1000908    	subs	x8, x8, #0x2
100000ac4: 54fffee1    	b.ne	0x100000aa0 <__Z4testIfEvj+0x4cc>
100000ac8: 7e30d802    	faddp.2s	s2, v0
100000acc: bc6a7a60    	ldr	s0, [x19, x10, lsl #2]
100000ad0: bc6a7a81    	ldr	s1, [x20, x10, lsl #2]
100000ad4: 1f000822    	fmadd	s2, s1, s0, s2
100000ad8: 9100214a    	add	x10, x10, #0x8
100000adc: eb17015f    	cmp	x10, x23
100000ae0: 54ffff63    	b.lo	0x100000acc <__Z4testIfEvj+0x4f8>
100000ae4: 71000edf    	cmp	w22, #0x3
100000ae8: 54006a63    	b.lo	0x100001834 <__Z4testIfEvj+0x1260>
100000aec: d1000eea    	sub	x10, x23, #0x3
100000af0: f100415f    	cmp	x10, #0x10
100000af4: 54000062    	b.hs	0x100000b00 <__Z4testIfEvj+0x52c>
100000af8: 5280004a    	mov	w10, #0x2               ; =2
100000afc: 14000082    	b	0x100000d04 <__Z4testIfEvj+0x730>
100000b00: d343fd48    	lsr	x8, x10, #3
100000b04: 9100050b    	add	x11, x8, #0x1
100000b08: f102015f    	cmp	x10, #0x80
100000b0c: 54000062    	b.hs	0x100000b18 <__Z4testIfEvj+0x544>
100000b10: d2800009    	mov	x9, #0x0                ; =0
100000b14: 14000062    	b	0x100000c9c <__Z4testIfEvj+0x6c8>
100000b18: f2400d69    	ands	x9, x11, #0xf
100000b1c: 5280020c    	mov	w12, #0x10              ; =16
100000b20: 9a89018c    	csel	x12, x12, x9, eq
100000b24: cb0c0169    	sub	x9, x11, x12
100000b28: 6f00e400    	movi.2d	v0, #0000000000000000
100000b2c: 6e040440    	mov.s	v0[0], v2[0]
100000b30: 6f00e401    	movi.2d	v1, #0000000000000000
100000b34: 9100132d    	add	x13, x25, #0x4
100000b38: 9100130e    	add	x14, x24, #0x4
100000b3c: aa0b03ef    	mov	x15, x11
100000b40: 6f00e402    	movi.2d	v2, #0000000000000000
100000b44: 6f00e403    	movi.2d	v3, #0000000000000000
100000b48: d10601d0    	sub	x16, x14, #0x180
100000b4c: 3dc00204    	ldr	q4, [x16]
100000b50: 3dc00a05    	ldr	q5, [x16, #0x20]
100000b54: 3dc01206    	ldr	q6, [x16, #0x40]
100000b58: 3dc01a07    	ldr	q7, [x16, #0x60]
100000b5c: 3cd001d0    	ldur	q16, [x14, #-0x100]
100000b60: 3cd201d1    	ldur	q17, [x14, #-0xe0]
100000b64: 3cd401d2    	ldur	q18, [x14, #-0xc0]
100000b68: d10601b0    	sub	x16, x13, #0x180
100000b6c: 3dc01a13    	ldr	q19, [x16, #0x60]
100000b70: 6e27de67    	fmul.4s	v7, v19, v7
100000b74: 3dc01213    	ldr	q19, [x16, #0x40]
100000b78: 6e26de66    	fmul.4s	v6, v19, v6
100000b7c: 3dc00a13    	ldr	q19, [x16, #0x20]
100000b80: 6e25de65    	fmul.4s	v5, v19, v5
100000b84: 3dc00213    	ldr	q19, [x16]
100000b88: 6e24de64    	fmul.4s	v4, v19, v4
100000b8c: 3cd601d3    	ldur	q19, [x14, #-0xa0]
100000b90: 4e853884    	zip1.4s	v4, v4, v5
100000b94: 3cd801c5    	ldur	q5, [x14, #-0x80]
100000b98: 4e8738c7    	zip1.4s	v7, v6, v7
100000b9c: 6e0740c6    	ext.16b	v6, v6, v7, #0x8
100000ba0: 6e1844c4    	mov.d	v4[1], v6[1]
100000ba4: 3cda01c6    	ldur	q6, [x14, #-0x60]
100000ba8: 3cd601a7    	ldur	q7, [x13, #-0xa0]
100000bac: 6e33dce7    	fmul.4s	v7, v7, v19
100000bb0: 3cd401b3    	ldur	q19, [x13, #-0xc0]
100000bb4: 6e32de72    	fmul.4s	v18, v19, v18
100000bb8: 3cd201b3    	ldur	q19, [x13, #-0xe0]
100000bbc: 6e31de71    	fmul.4s	v17, v19, v17
100000bc0: 3cd001b3    	ldur	q19, [x13, #-0x100]
100000bc4: 6e30de70    	fmul.4s	v16, v19, v16
100000bc8: 3cdc01d3    	ldur	q19, [x14, #-0x40]
100000bcc: 4e913a10    	zip1.4s	v16, v16, v17
100000bd0: 3cde01d1    	ldur	q17, [x14, #-0x20]
100000bd4: 4e873a47    	zip1.4s	v7, v18, v7
100000bd8: 6e074247    	ext.16b	v7, v18, v7, #0x8
100000bdc: 3dc001d2    	ldr	q18, [x14]
100000be0: 6e1844f0    	mov.d	v16[1], v7[1]
100000be4: 3cde01a7    	ldur	q7, [x13, #-0x20]
100000be8: 6e31dce7    	fmul.4s	v7, v7, v17
100000bec: 3cdc01b1    	ldur	q17, [x13, #-0x40]
100000bf0: 6e33de31    	fmul.4s	v17, v17, v19
100000bf4: 3cda01b3    	ldur	q19, [x13, #-0x60]
100000bf8: 6e26de66    	fmul.4s	v6, v19, v6
100000bfc: 3cd801b3    	ldur	q19, [x13, #-0x80]
100000c00: 6e25de65    	fmul.4s	v5, v19, v5
100000c04: 3dc009d3    	ldr	q19, [x14, #0x20]
100000c08: 4e8638a5    	zip1.4s	v5, v5, v6
100000c0c: 3dc011c6    	ldr	q6, [x14, #0x40]
100000c10: 4e873a27    	zip1.4s	v7, v17, v7
100000c14: 6e074227    	ext.16b	v7, v17, v7, #0x8
100000c18: 3dc019d1    	ldr	q17, [x14, #0x60]
100000c1c: 6e1844e5    	mov.d	v5[1], v7[1]
100000c20: 3dc019a7    	ldr	q7, [x13, #0x60]
100000c24: 6e31dce7    	fmul.4s	v7, v7, v17
100000c28: 3dc011b1    	ldr	q17, [x13, #0x40]
100000c2c: 6e26de26    	fmul.4s	v6, v17, v6
100000c30: 3dc009b1    	ldr	q17, [x13, #0x20]
100000c34: 6e33de31    	fmul.4s	v17, v17, v19
100000c38: 3dc001b3    	ldr	q19, [x13]
100000c3c: 6e32de72    	fmul.4s	v18, v19, v18
100000c40: 4e913a51    	zip1.4s	v17, v18, v17
100000c44: 4e8738c7    	zip1.4s	v7, v6, v7
100000c48: 6e0740c6    	ext.16b	v6, v6, v7, #0x8
100000c4c: 6e1844d1    	mov.d	v17[1], v6[1]
100000c50: 4e24d400    	fadd.4s	v0, v0, v4
100000c54: 4e30d421    	fadd.4s	v1, v1, v16
100000c58: 4e25d442    	fadd.4s	v2, v2, v5
100000c5c: 4e31d463    	fadd.4s	v3, v3, v17
100000c60: 910801ad    	add	x13, x13, #0x200
100000c64: d10041ef    	sub	x15, x15, #0x10
100000c68: 910801ce    	add	x14, x14, #0x200
100000c6c: eb0f019f    	cmp	x12, x15
100000c70: 54fff6c1    	b.ne	0x100000b48 <__Z4testIfEvj+0x574>
100000c74: 4e20d420    	fadd.4s	v0, v1, v0
100000c78: 4e20d440    	fadd.4s	v0, v2, v0
100000c7c: 4e20d460    	fadd.4s	v0, v3, v0
100000c80: 6e20d400    	faddp.4s	v0, v0, v0
100000c84: 7e30d802    	faddp.2s	s2, v0
100000c88: f1000d9f    	cmp	x12, #0x3
100000c8c: 54000082    	b.hs	0x100000c9c <__Z4testIfEvj+0x6c8>
100000c90: 52800048    	mov	w8, #0x2                ; =2
100000c94: aa090d0a    	orr	x10, x8, x9, lsl #3
100000c98: 1400001b    	b	0x100000d04 <__Z4testIfEvj+0x730>
100000c9c: f27d015f    	tst	x10, #0x8
100000ca0: 9280002a    	mov	x10, #-0x2              ; =-2
100000ca4: 9a8a154d    	cinc	x13, x10, eq
100000ca8: 8b0b01aa    	add	x10, x13, x11
100000cac: 5280004b    	mov	w11, #0x2               ; =2
100000cb0: aa0a0d6a    	orr	x10, x11, x10, lsl #3
100000cb4: 2f00e400    	movi	d0, #0000000000000000
100000cb8: 6e040440    	mov.s	v0[0], v2[0]
100000cbc: 5280010b    	mov	w11, #0x8               ; =8
100000cc0: aa09156c    	orr	x12, x11, x9, lsl #5
100000cc4: 8b0c028b    	add	x11, x20, x12
100000cc8: 8b0c026c    	add	x12, x19, x12
100000ccc: 8b0801a8    	add	x8, x13, x8
100000cd0: cb090108    	sub	x8, x8, x9
100000cd4: 91000508    	add	x8, x8, #0x1
100000cd8: fd401181    	ldr	d1, [x12, #0x20]
100000cdc: fd401162    	ldr	d2, [x11, #0x20]
100000ce0: 2e21dc41    	fmul.2s	v1, v2, v1
100000ce4: fc440582    	ldr	d2, [x12], #0x40
100000ce8: fc440563    	ldr	d3, [x11], #0x40
100000cec: 2e22dc62    	fmul.2s	v2, v3, v2
100000cf0: 0e813841    	zip1.2s	v1, v2, v1
100000cf4: 0e21d400    	fadd.2s	v0, v0, v1
100000cf8: f1000908    	subs	x8, x8, #0x2
100000cfc: 54fffee1    	b.ne	0x100000cd8 <__Z4testIfEvj+0x704>
100000d00: 7e30d802    	faddp.2s	s2, v0
100000d04: bc6a7a60    	ldr	s0, [x19, x10, lsl #2]
100000d08: bc6a7a81    	ldr	s1, [x20, x10, lsl #2]
100000d0c: 1f000822    	fmadd	s2, s1, s0, s2
100000d10: 9100214a    	add	x10, x10, #0x8
100000d14: eb17015f    	cmp	x10, x23
100000d18: 54ffff63    	b.lo	0x100000d04 <__Z4testIfEvj+0x730>
100000d1c: 71000edf    	cmp	w22, #0x3
100000d20: 540058a0    	b.eq	0x100001834 <__Z4testIfEvj+0x1260>
100000d24: d10012ea    	sub	x10, x23, #0x4
100000d28: f100415f    	cmp	x10, #0x10
100000d2c: 54000062    	b.hs	0x100000d38 <__Z4testIfEvj+0x764>
100000d30: 5280006a    	mov	w10, #0x3               ; =3
100000d34: 14000082    	b	0x100000f3c <__Z4testIfEvj+0x968>
100000d38: d343fd48    	lsr	x8, x10, #3
100000d3c: 9100050b    	add	x11, x8, #0x1
100000d40: f102015f    	cmp	x10, #0x80
100000d44: 54000062    	b.hs	0x100000d50 <__Z4testIfEvj+0x77c>
100000d48: d2800009    	mov	x9, #0x0                ; =0
100000d4c: 14000062    	b	0x100000ed4 <__Z4testIfEvj+0x900>
100000d50: f2400d69    	ands	x9, x11, #0xf
100000d54: 5280020c    	mov	w12, #0x10              ; =16
100000d58: 9a89018c    	csel	x12, x12, x9, eq
100000d5c: cb0c0169    	sub	x9, x11, x12
100000d60: 6f00e400    	movi.2d	v0, #0000000000000000
100000d64: 6e040440    	mov.s	v0[0], v2[0]
100000d68: 6f00e401    	movi.2d	v1, #0000000000000000
100000d6c: 9100232d    	add	x13, x25, #0x8
100000d70: 9100230e    	add	x14, x24, #0x8
100000d74: aa0b03ef    	mov	x15, x11
100000d78: 6f00e402    	movi.2d	v2, #0000000000000000
100000d7c: 6f00e403    	movi.2d	v3, #0000000000000000
100000d80: d10601d0    	sub	x16, x14, #0x180
100000d84: 3dc00204    	ldr	q4, [x16]
100000d88: 3dc00a05    	ldr	q5, [x16, #0x20]
100000d8c: 3dc01206    	ldr	q6, [x16, #0x40]
100000d90: 3dc01a07    	ldr	q7, [x16, #0x60]
100000d94: 3cd001d0    	ldur	q16, [x14, #-0x100]
100000d98: 3cd201d1    	ldur	q17, [x14, #-0xe0]
100000d9c: 3cd401d2    	ldur	q18, [x14, #-0xc0]
100000da0: d10601b0    	sub	x16, x13, #0x180
100000da4: 3dc01a13    	ldr	q19, [x16, #0x60]
100000da8: 6e27de67    	fmul.4s	v7, v19, v7
100000dac: 3dc01213    	ldr	q19, [x16, #0x40]
100000db0: 6e26de66    	fmul.4s	v6, v19, v6
100000db4: 3dc00a13    	ldr	q19, [x16, #0x20]
100000db8: 6e25de65    	fmul.4s	v5, v19, v5
100000dbc: 3dc00213    	ldr	q19, [x16]
100000dc0: 6e24de64    	fmul.4s	v4, v19, v4
100000dc4: 3cd601d3    	ldur	q19, [x14, #-0xa0]
100000dc8: 4e853884    	zip1.4s	v4, v4, v5
100000dcc: 3cd801c5    	ldur	q5, [x14, #-0x80]
100000dd0: 4e8738c7    	zip1.4s	v7, v6, v7
100000dd4: 6e0740c6    	ext.16b	v6, v6, v7, #0x8
100000dd8: 6e1844c4    	mov.d	v4[1], v6[1]
100000ddc: 3cda01c6    	ldur	q6, [x14, #-0x60]
100000de0: 3cd601a7    	ldur	q7, [x13, #-0xa0]
100000de4: 6e33dce7    	fmul.4s	v7, v7, v19
100000de8: 3cd401b3    	ldur	q19, [x13, #-0xc0]
100000dec: 6e32de72    	fmul.4s	v18, v19, v18
100000df0: 3cd201b3    	ldur	q19, [x13, #-0xe0]
100000df4: 6e31de71    	fmul.4s	v17, v19, v17
100000df8: 3cd001b3    	ldur	q19, [x13, #-0x100]
100000dfc: 6e30de70    	fmul.4s	v16, v19, v16
100000e00: 3cdc01d3    	ldur	q19, [x14, #-0x40]
100000e04: 4e913a10    	zip1.4s	v16, v16, v17
100000e08: 3cde01d1    	ldur	q17, [x14, #-0x20]
100000e0c: 4e873a47    	zip1.4s	v7, v18, v7
100000e10: 6e074247    	ext.16b	v7, v18, v7, #0x8
100000e14: 3dc001d2    	ldr	q18, [x14]
100000e18: 6e1844f0    	mov.d	v16[1], v7[1]
100000e1c: 3cde01a7    	ldur	q7, [x13, #-0x20]
100000e20: 6e31dce7    	fmul.4s	v7, v7, v17
100000e24: 3cdc01b1    	ldur	q17, [x13, #-0x40]
100000e28: 6e33de31    	fmul.4s	v17, v17, v19
100000e2c: 3cda01b3    	ldur	q19, [x13, #-0x60]
100000e30: 6e26de66    	fmul.4s	v6, v19, v6
100000e34: 3cd801b3    	ldur	q19, [x13, #-0x80]
100000e38: 6e25de65    	fmul.4s	v5, v19, v5
100000e3c: 3dc009d3    	ldr	q19, [x14, #0x20]
100000e40: 4e8638a5    	zip1.4s	v5, v5, v6
100000e44: 3dc011c6    	ldr	q6, [x14, #0x40]
100000e48: 4e873a27    	zip1.4s	v7, v17, v7
100000e4c: 6e074227    	ext.16b	v7, v17, v7, #0x8
100000e50: 3dc019d1    	ldr	q17, [x14, #0x60]
100000e54: 6e1844e5    	mov.d	v5[1], v7[1]
100000e58: 3dc019a7    	ldr	q7, [x13, #0x60]
100000e5c: 6e31dce7    	fmul.4s	v7, v7, v17
100000e60: 3dc011b1    	ldr	q17, [x13, #0x40]
100000e64: 6e26de26    	fmul.4s	v6, v17, v6
100000e68: 3dc009b1    	ldr	q17, [x13, #0x20]
100000e6c: 6e33de31    	fmul.4s	v17, v17, v19
100000e70: 3dc001b3    	ldr	q19, [x13]
100000e74: 6e32de72    	fmul.4s	v18, v19, v18
100000e78: 4e913a51    	zip1.4s	v17, v18, v17
100000e7c: 4e8738c7    	zip1.4s	v7, v6, v7
100000e80: 6e0740c6    	ext.16b	v6, v6, v7, #0x8
100000e84: 6e1844d1    	mov.d	v17[1], v6[1]
100000e88: 4e24d400    	fadd.4s	v0, v0, v4
100000e8c: 4e30d421    	fadd.4s	v1, v1, v16
100000e90: 4e25d442    	fadd.4s	v2, v2, v5
100000e94: 4e31d463    	fadd.4s	v3, v3, v17
100000e98: 910801ad    	add	x13, x13, #0x200
100000e9c: d10041ef    	sub	x15, x15, #0x10
100000ea0: 910801ce    	add	x14, x14, #0x200
100000ea4: eb0f019f    	cmp	x12, x15
100000ea8: 54fff6c1    	b.ne	0x100000d80 <__Z4testIfEvj+0x7ac>
100000eac: 4e20d420    	fadd.4s	v0, v1, v0
100000eb0: 4e20d440    	fadd.4s	v0, v2, v0
100000eb4: 4e20d460    	fadd.4s	v0, v3, v0
100000eb8: 6e20d400    	faddp.4s	v0, v0, v0
100000ebc: 7e30d802    	faddp.2s	s2, v0
100000ec0: f1000d9f    	cmp	x12, #0x3
100000ec4: 54000082    	b.hs	0x100000ed4 <__Z4testIfEvj+0x900>
100000ec8: 52800068    	mov	w8, #0x3                ; =3
100000ecc: aa090d0a    	orr	x10, x8, x9, lsl #3
100000ed0: 1400001b    	b	0x100000f3c <__Z4testIfEvj+0x968>
100000ed4: f27d015f    	tst	x10, #0x8
100000ed8: 9280002a    	mov	x10, #-0x2              ; =-2
100000edc: 9a8a154d    	cinc	x13, x10, eq
100000ee0: 8b0b01aa    	add	x10, x13, x11
100000ee4: 5280006b    	mov	w11, #0x3               ; =3
100000ee8: aa0a0d6a    	orr	x10, x11, x10, lsl #3
100000eec: 2f00e400    	movi	d0, #0000000000000000
100000ef0: 6e040440    	mov.s	v0[0], v2[0]
100000ef4: 5280018b    	mov	w11, #0xc               ; =12
100000ef8: aa09156c    	orr	x12, x11, x9, lsl #5
100000efc: 8b0c028b    	add	x11, x20, x12
100000f00: 8b0c026c    	add	x12, x19, x12
100000f04: 8b0801a8    	add	x8, x13, x8
100000f08: cb090108    	sub	x8, x8, x9
100000f0c: 91000508    	add	x8, x8, #0x1
100000f10: fd401181    	ldr	d1, [x12, #0x20]
100000f14: fd401162    	ldr	d2, [x11, #0x20]
100000f18: 2e21dc41    	fmul.2s	v1, v2, v1
100000f1c: fc440582    	ldr	d2, [x12], #0x40
100000f20: fc440563    	ldr	d3, [x11], #0x40
100000f24: 2e22dc62    	fmul.2s	v2, v3, v2
100000f28: 0e813841    	zip1.2s	v1, v2, v1
100000f2c: 0e21d400    	fadd.2s	v0, v0, v1
100000f30: f1000908    	subs	x8, x8, #0x2
100000f34: 54fffee1    	b.ne	0x100000f10 <__Z4testIfEvj+0x93c>
100000f38: 7e30d802    	faddp.2s	s2, v0
100000f3c: bc6a7a60    	ldr	s0, [x19, x10, lsl #2]
100000f40: bc6a7a81    	ldr	s1, [x20, x10, lsl #2]
100000f44: 1f000822    	fmadd	s2, s1, s0, s2
100000f48: 9100214a    	add	x10, x10, #0x8
100000f4c: eb17015f    	cmp	x10, x23
100000f50: 54ffff63    	b.lo	0x100000f3c <__Z4testIfEvj+0x968>
100000f54: 710016df    	cmp	w22, #0x5
100000f58: 540046e3    	b.lo	0x100001834 <__Z4testIfEvj+0x1260>
100000f5c: d10016ea    	sub	x10, x23, #0x5
100000f60: f100415f    	cmp	x10, #0x10
100000f64: 54000062    	b.hs	0x100000f70 <__Z4testIfEvj+0x99c>
100000f68: 5280008a    	mov	w10, #0x4               ; =4
100000f6c: 14000082    	b	0x100001174 <__Z4testIfEvj+0xba0>
100000f70: d343fd48    	lsr	x8, x10, #3
100000f74: 9100050b    	add	x11, x8, #0x1
100000f78: f102015f    	cmp	x10, #0x80
100000f7c: 54000062    	b.hs	0x100000f88 <__Z4testIfEvj+0x9b4>
100000f80: d2800009    	mov	x9, #0x0                ; =0
100000f84: 14000062    	b	0x10000110c <__Z4testIfEvj+0xb38>
100000f88: f2400d69    	ands	x9, x11, #0xf
100000f8c: 5280020c    	mov	w12, #0x10              ; =16
100000f90: 9a89018c    	csel	x12, x12, x9, eq
100000f94: cb0c0169    	sub	x9, x11, x12
100000f98: 6f00e400    	movi.2d	v0, #0000000000000000
100000f9c: 6e040440    	mov.s	v0[0], v2[0]
100000fa0: 6f00e401    	movi.2d	v1, #0000000000000000
100000fa4: 9100332d    	add	x13, x25, #0xc
100000fa8: 9100330e    	add	x14, x24, #0xc
100000fac: aa0b03ef    	mov	x15, x11
100000fb0: 6f00e402    	movi.2d	v2, #0000000000000000
100000fb4: 6f00e403    	movi.2d	v3, #0000000000000000
100000fb8: d10601d0    	sub	x16, x14, #0x180
100000fbc: 3dc00204    	ldr	q4, [x16]
100000fc0: 3dc00a05    	ldr	q5, [x16, #0x20]
100000fc4: 3dc01206    	ldr	q6, [x16, #0x40]
100000fc8: 3dc01a07    	ldr	q7, [x16, #0x60]
100000fcc: 3cd001d0    	ldur	q16, [x14, #-0x100]
100000fd0: 3cd201d1    	ldur	q17, [x14, #-0xe0]
100000fd4: 3cd401d2    	ldur	q18, [x14, #-0xc0]
100000fd8: d10601b0    	sub	x16, x13, #0x180
100000fdc: 3dc01a13    	ldr	q19, [x16, #0x60]
100000fe0: 6e27de67    	fmul.4s	v7, v19, v7
100000fe4: 3dc01213    	ldr	q19, [x16, #0x40]
100000fe8: 6e26de66    	fmul.4s	v6, v19, v6
100000fec: 3dc00a13    	ldr	q19, [x16, #0x20]
100000ff0: 6e25de65    	fmul.4s	v5, v19, v5
100000ff4: 3dc00213    	ldr	q19, [x16]
100000ff8: 6e24de64    	fmul.4s	v4, v19, v4
100000ffc: 3cd601d3    	ldur	q19, [x14, #-0xa0]
100001000: 4e853884    	zip1.4s	v4, v4, v5
100001004: 3cd801c5    	ldur	q5, [x14, #-0x80]
100001008: 4e8738c7    	zip1.4s	v7, v6, v7
10000100c: 6e0740c6    	ext.16b	v6, v6, v7, #0x8
100001010: 6e1844c4    	mov.d	v4[1], v6[1]
100001014: 3cda01c6    	ldur	q6, [x14, #-0x60]
100001018: 3cd601a7    	ldur	q7, [x13, #-0xa0]
10000101c: 6e33dce7    	fmul.4s	v7, v7, v19
100001020: 3cd401b3    	ldur	q19, [x13, #-0xc0]
100001024: 6e32de72    	fmul.4s	v18, v19, v18
100001028: 3cd201b3    	ldur	q19, [x13, #-0xe0]
10000102c: 6e31de71    	fmul.4s	v17, v19, v17
100001030: 3cd001b3    	ldur	q19, [x13, #-0x100]
100001034: 6e30de70    	fmul.4s	v16, v19, v16
100001038: 3cdc01d3    	ldur	q19, [x14, #-0x40]
10000103c: 4e913a10    	zip1.4s	v16, v16, v17
100001040: 3cde01d1    	ldur	q17, [x14, #-0x20]
100001044: 4e873a47    	zip1.4s	v7, v18, v7
100001048: 6e074247    	ext.16b	v7, v18, v7, #0x8
10000104c: 3dc001d2    	ldr	q18, [x14]
100001050: 6e1844f0    	mov.d	v16[1], v7[1]
100001054: 3cde01a7    	ldur	q7, [x13, #-0x20]
100001058: 6e31dce7    	fmul.4s	v7, v7, v17
10000105c: 3cdc01b1    	ldur	q17, [x13, #-0x40]
100001060: 6e33de31    	fmul.4s	v17, v17, v19
100001064: 3cda01b3    	ldur	q19, [x13, #-0x60]
100001068: 6e26de66    	fmul.4s	v6, v19, v6
10000106c: 3cd801b3    	ldur	q19, [x13, #-0x80]
100001070: 6e25de65    	fmul.4s	v5, v19, v5
100001074: 3dc009d3    	ldr	q19, [x14, #0x20]
100001078: 4e8638a5    	zip1.4s	v5, v5, v6
10000107c: 3dc011c6    	ldr	q6, [x14, #0x40]
100001080: 4e873a27    	zip1.4s	v7, v17, v7
100001084: 6e074227    	ext.16b	v7, v17, v7, #0x8
100001088: 3dc019d1    	ldr	q17, [x14, #0x60]
10000108c: 6e1844e5    	mov.d	v5[1], v7[1]
100001090: 3dc019a7    	ldr	q7, [x13, #0x60]
100001094: 6e31dce7    	fmul.4s	v7, v7, v17
100001098: 3dc011b1    	ldr	q17, [x13, #0x40]
10000109c: 6e26de26    	fmul.4s	v6, v17, v6
1000010a0: 3dc009b1    	ldr	q17, [x13, #0x20]
1000010a4: 6e33de31    	fmul.4s	v17, v17, v19
1000010a8: 3dc001b3    	ldr	q19, [x13]
1000010ac: 6e32de72    	fmul.4s	v18, v19, v18
1000010b0: 4e913a51    	zip1.4s	v17, v18, v17
1000010b4: 4e8738c7    	zip1.4s	v7, v6, v7
1000010b8: 6e0740c6    	ext.16b	v6, v6, v7, #0x8
1000010bc: 6e1844d1    	mov.d	v17[1], v6[1]
1000010c0: 4e24d400    	fadd.4s	v0, v0, v4
1000010c4: 4e30d421    	fadd.4s	v1, v1, v16
1000010c8: 4e25d442    	fadd.4s	v2, v2, v5
1000010cc: 4e31d463    	fadd.4s	v3, v3, v17
1000010d0: 910801ad    	add	x13, x13, #0x200
1000010d4: d10041ef    	sub	x15, x15, #0x10
1000010d8: 910801ce    	add	x14, x14, #0x200
1000010dc: eb0f019f    	cmp	x12, x15
1000010e0: 54fff6c1    	b.ne	0x100000fb8 <__Z4testIfEvj+0x9e4>
1000010e4: 4e20d420    	fadd.4s	v0, v1, v0
1000010e8: 4e20d440    	fadd.4s	v0, v2, v0
1000010ec: 4e20d460    	fadd.4s	v0, v3, v0
1000010f0: 6e20d400    	faddp.4s	v0, v0, v0
1000010f4: 7e30d802    	faddp.2s	s2, v0
1000010f8: f1000d9f    	cmp	x12, #0x3
1000010fc: 54000082    	b.hs	0x10000110c <__Z4testIfEvj+0xb38>
100001100: 52800088    	mov	w8, #0x4                ; =4
100001104: aa090d0a    	orr	x10, x8, x9, lsl #3
100001108: 1400001b    	b	0x100001174 <__Z4testIfEvj+0xba0>
10000110c: f27d015f    	tst	x10, #0x8
100001110: 9280002a    	mov	x10, #-0x2              ; =-2
100001114: 9a8a154d    	cinc	x13, x10, eq
100001118: 8b0b01aa    	add	x10, x13, x11
10000111c: 5280008b    	mov	w11, #0x4               ; =4
100001120: aa0a0d6a    	orr	x10, x11, x10, lsl #3
100001124: 2f00e400    	movi	d0, #0000000000000000
100001128: 6e040440    	mov.s	v0[0], v2[0]
10000112c: 5280020b    	mov	w11, #0x10              ; =16
100001130: aa09156c    	orr	x12, x11, x9, lsl #5
100001134: 8b0c028b    	add	x11, x20, x12
100001138: 8b0c026c    	add	x12, x19, x12
10000113c: 8b0801a8    	add	x8, x13, x8
100001140: cb090108    	sub	x8, x8, x9
100001144: 91000508    	add	x8, x8, #0x1
100001148: fd401181    	ldr	d1, [x12, #0x20]
10000114c: fd401162    	ldr	d2, [x11, #0x20]
100001150: 2e21dc41    	fmul.2s	v1, v2, v1
100001154: fc440582    	ldr	d2, [x12], #0x40
100001158: fc440563    	ldr	d3, [x11], #0x40
10000115c: 2e22dc62    	fmul.2s	v2, v3, v2
100001160: 0e813841    	zip1.2s	v1, v2, v1
100001164: 0e21d400    	fadd.2s	v0, v0, v1
100001168: f1000908    	subs	x8, x8, #0x2
10000116c: 54fffee1    	b.ne	0x100001148 <__Z4testIfEvj+0xb74>
100001170: 7e30d802    	faddp.2s	s2, v0
100001174: bc6a7a60    	ldr	s0, [x19, x10, lsl #2]
100001178: bc6a7a81    	ldr	s1, [x20, x10, lsl #2]
10000117c: 1f000822    	fmadd	s2, s1, s0, s2
100001180: 9100214a    	add	x10, x10, #0x8
100001184: eb17015f    	cmp	x10, x23
100001188: 54ffff63    	b.lo	0x100001174 <__Z4testIfEvj+0xba0>
10000118c: 710016df    	cmp	w22, #0x5
100001190: 54003520    	b.eq	0x100001834 <__Z4testIfEvj+0x1260>
100001194: d1001aea    	sub	x10, x23, #0x6
100001198: f100415f    	cmp	x10, #0x10
10000119c: 54000062    	b.hs	0x1000011a8 <__Z4testIfEvj+0xbd4>
1000011a0: 528000aa    	mov	w10, #0x5               ; =5
1000011a4: 14000082    	b	0x1000013ac <__Z4testIfEvj+0xdd8>
1000011a8: d343fd48    	lsr	x8, x10, #3
1000011ac: 9100050b    	add	x11, x8, #0x1
1000011b0: f102015f    	cmp	x10, #0x80
1000011b4: 54000062    	b.hs	0x1000011c0 <__Z4testIfEvj+0xbec>
1000011b8: d2800009    	mov	x9, #0x0                ; =0
1000011bc: 14000062    	b	0x100001344 <__Z4testIfEvj+0xd70>
1000011c0: f2400d69    	ands	x9, x11, #0xf
1000011c4: 5280020c    	mov	w12, #0x10              ; =16
1000011c8: 9a89018c    	csel	x12, x12, x9, eq
1000011cc: cb0c0169    	sub	x9, x11, x12
1000011d0: 6f00e400    	movi.2d	v0, #0000000000000000
1000011d4: 6e040440    	mov.s	v0[0], v2[0]
1000011d8: 6f00e401    	movi.2d	v1, #0000000000000000
1000011dc: 9100432d    	add	x13, x25, #0x10
1000011e0: 9100430e    	add	x14, x24, #0x10
1000011e4: aa0b03ef    	mov	x15, x11
1000011e8: 6f00e402    	movi.2d	v2, #0000000000000000
1000011ec: 6f00e403    	movi.2d	v3, #0000000000000000
1000011f0: d10601d0    	sub	x16, x14, #0x180
1000011f4: 3dc00204    	ldr	q4, [x16]
1000011f8: 3dc00a05    	ldr	q5, [x16, #0x20]
1000011fc: 3dc01206    	ldr	q6, [x16, #0x40]
100001200: 3dc01a07    	ldr	q7, [x16, #0x60]
100001204: 3cd001d0    	ldur	q16, [x14, #-0x100]
100001208: 3cd201d1    	ldur	q17, [x14, #-0xe0]
10000120c: 3cd401d2    	ldur	q18, [x14, #-0xc0]
100001210: d10601b0    	sub	x16, x13, #0x180
100001214: 3dc01a13    	ldr	q19, [x16, #0x60]
100001218: 6e27de67    	fmul.4s	v7, v19, v7
10000121c: 3dc01213    	ldr	q19, [x16, #0x40]
100001220: 6e26de66    	fmul.4s	v6, v19, v6
100001224: 3dc00a13    	ldr	q19, [x16, #0x20]
100001228: 6e25de65    	fmul.4s	v5, v19, v5
10000122c: 3dc00213    	ldr	q19, [x16]
100001230: 6e24de64    	fmul.4s	v4, v19, v4
100001234: 3cd601d3    	ldur	q19, [x14, #-0xa0]
100001238: 4e853884    	zip1.4s	v4, v4, v5
10000123c: 3cd801c5    	ldur	q5, [x14, #-0x80]
100001240: 4e8738c7    	zip1.4s	v7, v6, v7
100001244: 6e0740c6    	ext.16b	v6, v6, v7, #0x8
100001248: 6e1844c4    	mov.d	v4[1], v6[1]
10000124c: 3cda01c6    	ldur	q6, [x14, #-0x60]
100001250: 3cd601a7    	ldur	q7, [x13, #-0xa0]
100001254: 6e33dce7    	fmul.4s	v7, v7, v19
100001258: 3cd401b3    	ldur	q19, [x13, #-0xc0]
10000125c: 6e32de72    	fmul.4s	v18, v19, v18
100001260: 3cd201b3    	ldur	q19, [x13, #-0xe0]
100001264: 6e31de71    	fmul.4s	v17, v19, v17
100001268: 3cd001b3    	ldur	q19, [x13, #-0x100]
10000126c: 6e30de70    	fmul.4s	v16, v19, v16
100001270: 3cdc01d3    	ldur	q19, [x14, #-0x40]
100001274: 4e913a10    	zip1.4s	v16, v16, v17
100001278: 3cde01d1    	ldur	q17, [x14, #-0x20]
10000127c: 4e873a47    	zip1.4s	v7, v18, v7
100001280: 6e074247    	ext.16b	v7, v18, v7, #0x8
100001284: 3dc001d2    	ldr	q18, [x14]
100001288: 6e1844f0    	mov.d	v16[1], v7[1]
10000128c: 3cde01a7    	ldur	q7, [x13, #-0x20]
100001290: 6e31dce7    	fmul.4s	v7, v7, v17
100001294: 3cdc01b1    	ldur	q17, [x13, #-0x40]
100001298: 6e33de31    	fmul.4s	v17, v17, v19
10000129c: 3cda01b3    	ldur	q19, [x13, #-0x60]
1000012a0: 6e26de66    	fmul.4s	v6, v19, v6
1000012a4: 3cd801b3    	ldur	q19, [x13, #-0x80]
1000012a8: 6e25de65    	fmul.4s	v5, v19, v5
1000012ac: 3dc009d3    	ldr	q19, [x14, #0x20]
1000012b0: 4e8638a5    	zip1.4s	v5, v5, v6
1000012b4: 3dc011c6    	ldr	q6, [x14, #0x40]
1000012b8: 4e873a27    	zip1.4s	v7, v17, v7
1000012bc: 6e074227    	ext.16b	v7, v17, v7, #0x8
1000012c0: 3dc019d1    	ldr	q17, [x14, #0x60]
1000012c4: 6e1844e5    	mov.d	v5[1], v7[1]
1000012c8: 3dc019a7    	ldr	q7, [x13, #0x60]
1000012cc: 6e31dce7    	fmul.4s	v7, v7, v17
1000012d0: 3dc011b1    	ldr	q17, [x13, #0x40]
1000012d4: 6e26de26    	fmul.4s	v6, v17, v6
1000012d8: 3dc009b1    	ldr	q17, [x13, #0x20]
1000012dc: 6e33de31    	fmul.4s	v17, v17, v19
1000012e0: 3dc001b3    	ldr	q19, [x13]
1000012e4: 6e32de72    	fmul.4s	v18, v19, v18
1000012e8: 4e913a51    	zip1.4s	v17, v18, v17
1000012ec: 4e8738c7    	zip1.4s	v7, v6, v7
1000012f0: 6e0740c6    	ext.16b	v6, v6, v7, #0x8
1000012f4: 6e1844d1    	mov.d	v17[1], v6[1]
1000012f8: 4e24d400    	fadd.4s	v0, v0, v4
1000012fc: 4e30d421    	fadd.4s	v1, v1, v16
100001300: 4e25d442    	fadd.4s	v2, v2, v5
100001304: 4e31d463    	fadd.4s	v3, v3, v17
100001308: 910801ad    	add	x13, x13, #0x200
10000130c: d10041ef    	sub	x15, x15, #0x10
100001310: 910801ce    	add	x14, x14, #0x200
100001314: eb0f019f    	cmp	x12, x15
100001318: 54fff6c1    	b.ne	0x1000011f0 <__Z4testIfEvj+0xc1c>
10000131c: 4e20d420    	fadd.4s	v0, v1, v0
100001320: 4e20d440    	fadd.4s	v0, v2, v0
100001324: 4e20d460    	fadd.4s	v0, v3, v0
100001328: 6e20d400    	faddp.4s	v0, v0, v0
10000132c: 7e30d802    	faddp.2s	s2, v0
100001330: f1000d9f    	cmp	x12, #0x3
100001334: 54000082    	b.hs	0x100001344 <__Z4testIfEvj+0xd70>
100001338: 528000a8    	mov	w8, #0x5                ; =5
10000133c: aa090d0a    	orr	x10, x8, x9, lsl #3
100001340: 1400001b    	b	0x1000013ac <__Z4testIfEvj+0xdd8>
100001344: f27d015f    	tst	x10, #0x8
100001348: 9280002a    	mov	x10, #-0x2              ; =-2
10000134c: 9a8a154d    	cinc	x13, x10, eq
100001350: 8b0b01aa    	add	x10, x13, x11
100001354: 528000ab    	mov	w11, #0x5               ; =5
100001358: aa0a0d6a    	orr	x10, x11, x10, lsl #3
10000135c: 2f00e400    	movi	d0, #0000000000000000
100001360: 6e040440    	mov.s	v0[0], v2[0]
100001364: 5280028b    	mov	w11, #0x14              ; =20
100001368: aa09156c    	orr	x12, x11, x9, lsl #5
10000136c: 8b0c028b    	add	x11, x20, x12
100001370: 8b0c026c    	add	x12, x19, x12
100001374: 8b0801a8    	add	x8, x13, x8
100001378: cb090108    	sub	x8, x8, x9
10000137c: 91000508    	add	x8, x8, #0x1
100001380: fd401181    	ldr	d1, [x12, #0x20]
100001384: fd401162    	ldr	d2, [x11, #0x20]
100001388: 2e21dc41    	fmul.2s	v1, v2, v1
10000138c: fc440582    	ldr	d2, [x12], #0x40
100001390: fc440563    	ldr	d3, [x11], #0x40
100001394: 2e22dc62    	fmul.2s	v2, v3, v2
100001398: 0e813841    	zip1.2s	v1, v2, v1
10000139c: 0e21d400    	fadd.2s	v0, v0, v1
1000013a0: f1000908    	subs	x8, x8, #0x2
1000013a4: 54fffee1    	b.ne	0x100001380 <__Z4testIfEvj+0xdac>
1000013a8: 7e30d802    	faddp.2s	s2, v0
1000013ac: bc6a7a60    	ldr	s0, [x19, x10, lsl #2]
1000013b0: bc6a7a81    	ldr	s1, [x20, x10, lsl #2]
1000013b4: 1f000822    	fmadd	s2, s1, s0, s2
1000013b8: 9100214a    	add	x10, x10, #0x8
1000013bc: eb17015f    	cmp	x10, x23
1000013c0: 54ffff63    	b.lo	0x1000013ac <__Z4testIfEvj+0xdd8>
1000013c4: 71001edf    	cmp	w22, #0x7
1000013c8: 54002363    	b.lo	0x100001834 <__Z4testIfEvj+0x1260>
1000013cc: d1001eea    	sub	x10, x23, #0x7
1000013d0: f100415f    	cmp	x10, #0x10
1000013d4: 54000062    	b.hs	0x1000013e0 <__Z4testIfEvj+0xe0c>
1000013d8: 528000ca    	mov	w10, #0x6               ; =6
1000013dc: 14000082    	b	0x1000015e4 <__Z4testIfEvj+0x1010>
1000013e0: d343fd48    	lsr	x8, x10, #3
1000013e4: 9100050b    	add	x11, x8, #0x1
1000013e8: f102015f    	cmp	x10, #0x80
1000013ec: 54000062    	b.hs	0x1000013f8 <__Z4testIfEvj+0xe24>
1000013f0: d2800009    	mov	x9, #0x0                ; =0
1000013f4: 14000062    	b	0x10000157c <__Z4testIfEvj+0xfa8>
1000013f8: f2400d69    	ands	x9, x11, #0xf
1000013fc: 5280020c    	mov	w12, #0x10              ; =16
100001400: 9a89018c    	csel	x12, x12, x9, eq
100001404: cb0c0169    	sub	x9, x11, x12
100001408: 6f00e400    	movi.2d	v0, #0000000000000000
10000140c: 6e040440    	mov.s	v0[0], v2[0]
100001410: 6f00e401    	movi.2d	v1, #0000000000000000
100001414: 9100532d    	add	x13, x25, #0x14
100001418: 9100530e    	add	x14, x24, #0x14
10000141c: aa0b03ef    	mov	x15, x11
100001420: 6f00e402    	movi.2d	v2, #0000000000000000
100001424: 6f00e403    	movi.2d	v3, #0000000000000000
100001428: d10601d0    	sub	x16, x14, #0x180
10000142c: 3dc00204    	ldr	q4, [x16]
100001430: 3dc00a05    	ldr	q5, [x16, #0x20]
100001434: 3dc01206    	ldr	q6, [x16, #0x40]
100001438: 3dc01a07    	ldr	q7, [x16, #0x60]
10000143c: 3cd001d0    	ldur	q16, [x14, #-0x100]
100001440: 3cd201d1    	ldur	q17, [x14, #-0xe0]
100001444: 3cd401d2    	ldur	q18, [x14, #-0xc0]
100001448: d10601b0    	sub	x16, x13, #0x180
10000144c: 3dc01a13    	ldr	q19, [x16, #0x60]
100001450: 6e27de67    	fmul.4s	v7, v19, v7
100001454: 3dc01213    	ldr	q19, [x16, #0x40]
100001458: 6e26de66    	fmul.4s	v6, v19, v6
10000145c: 3dc00a13    	ldr	q19, [x16, #0x20]
100001460: 6e25de65    	fmul.4s	v5, v19, v5
100001464: 3dc00213    	ldr	q19, [x16]
100001468: 6e24de64    	fmul.4s	v4, v19, v4
10000146c: 3cd601d3    	ldur	q19, [x14, #-0xa0]
100001470: 4e853884    	zip1.4s	v4, v4, v5
100001474: 3cd801c5    	ldur	q5, [x14, #-0x80]
100001478: 4e8738c7    	zip1.4s	v7, v6, v7
10000147c: 6e0740c6    	ext.16b	v6, v6, v7, #0x8
100001480: 6e1844c4    	mov.d	v4[1], v6[1]
100001484: 3cda01c6    	ldur	q6, [x14, #-0x60]
100001488: 3cd601a7    	ldur	q7, [x13, #-0xa0]
10000148c: 6e33dce7    	fmul.4s	v7, v7, v19
100001490: 3cd401b3    	ldur	q19, [x13, #-0xc0]
100001494: 6e32de72    	fmul.4s	v18, v19, v18
100001498: 3cd201b3    	ldur	q19, [x13, #-0xe0]
10000149c: 6e31de71    	fmul.4s	v17, v19, v17
1000014a0: 3cd001b3    	ldur	q19, [x13, #-0x100]
1000014a4: 6e30de70    	fmul.4s	v16, v19, v16
1000014a8: 3cdc01d3    	ldur	q19, [x14, #-0x40]
1000014ac: 4e913a10    	zip1.4s	v16, v16, v17
1000014b0: 3cde01d1    	ldur	q17, [x14, #-0x20]
1000014b4: 4e873a47    	zip1.4s	v7, v18, v7
1000014b8: 6e074247    	ext.16b	v7, v18, v7, #0x8
1000014bc: 3dc001d2    	ldr	q18, [x14]
1000014c0: 6e1844f0    	mov.d	v16[1], v7[1]
1000014c4: 3cde01a7    	ldur	q7, [x13, #-0x20]
1000014c8: 6e31dce7    	fmul.4s	v7, v7, v17
1000014cc: 3cdc01b1    	ldur	q17, [x13, #-0x40]
1000014d0: 6e33de31    	fmul.4s	v17, v17, v19
1000014d4: 3cda01b3    	ldur	q19, [x13, #-0x60]
1000014d8: 6e26de66    	fmul.4s	v6, v19, v6
1000014dc: 3cd801b3    	ldur	q19, [x13, #-0x80]
1000014e0: 6e25de65    	fmul.4s	v5, v19, v5
1000014e4: 3dc009d3    	ldr	q19, [x14, #0x20]
1000014e8: 4e8638a5    	zip1.4s	v5, v5, v6
1000014ec: 3dc011c6    	ldr	q6, [x14, #0x40]
1000014f0: 4e873a27    	zip1.4s	v7, v17, v7
1000014f4: 6e074227    	ext.16b	v7, v17, v7, #0x8
1000014f8: 3dc019d1    	ldr	q17, [x14, #0x60]
1000014fc: 6e1844e5    	mov.d	v5[1], v7[1]
100001500: 3dc019a7    	ldr	q7, [x13, #0x60]
100001504: 6e31dce7    	fmul.4s	v7, v7, v17
100001508: 3dc011b1    	ldr	q17, [x13, #0x40]
10000150c: 6e26de26    	fmul.4s	v6, v17, v6
100001510: 3dc009b1    	ldr	q17, [x13, #0x20]
100001514: 6e33de31    	fmul.4s	v17, v17, v19
100001518: 3dc001b3    	ldr	q19, [x13]
10000151c: 6e32de72    	fmul.4s	v18, v19, v18
100001520: 4e913a51    	zip1.4s	v17, v18, v17
100001524: 4e8738c7    	zip1.4s	v7, v6, v7
100001528: 6e0740c6    	ext.16b	v6, v6, v7, #0x8
10000152c: 6e1844d1    	mov.d	v17[1], v6[1]
100001530: 4e24d400    	fadd.4s	v0, v0, v4
100001534: 4e30d421    	fadd.4s	v1, v1, v16
100001538: 4e25d442    	fadd.4s	v2, v2, v5
10000153c: 4e31d463    	fadd.4s	v3, v3, v17
100001540: 910801ad    	add	x13, x13, #0x200
100001544: d10041ef    	sub	x15, x15, #0x10
100001548: 910801ce    	add	x14, x14, #0x200
10000154c: eb0f019f    	cmp	x12, x15
100001550: 54fff6c1    	b.ne	0x100001428 <__Z4testIfEvj+0xe54>
100001554: 4e20d420    	fadd.4s	v0, v1, v0
100001558: 4e20d440    	fadd.4s	v0, v2, v0
10000155c: 4e20d460    	fadd.4s	v0, v3, v0
100001560: 6e20d400    	faddp.4s	v0, v0, v0
100001564: 7e30d802    	faddp.2s	s2, v0
100001568: f1000d9f    	cmp	x12, #0x3
10000156c: 54000082    	b.hs	0x10000157c <__Z4testIfEvj+0xfa8>
100001570: 528000c8    	mov	w8, #0x6                ; =6
100001574: aa090d0a    	orr	x10, x8, x9, lsl #3
100001578: 1400001b    	b	0x1000015e4 <__Z4testIfEvj+0x1010>
10000157c: f27d015f    	tst	x10, #0x8
100001580: 9280002a    	mov	x10, #-0x2              ; =-2
100001584: 9a8a154d    	cinc	x13, x10, eq
100001588: 8b0b01aa    	add	x10, x13, x11
10000158c: 528000cb    	mov	w11, #0x6               ; =6
100001590: aa0a0d6a    	orr	x10, x11, x10, lsl #3
100001594: 2f00e400    	movi	d0, #0000000000000000
100001598: 6e040440    	mov.s	v0[0], v2[0]
10000159c: 5280030b    	mov	w11, #0x18              ; =24
1000015a0: aa09156c    	orr	x12, x11, x9, lsl #5
1000015a4: 8b0c028b    	add	x11, x20, x12
1000015a8: 8b0c026c    	add	x12, x19, x12
1000015ac: 8b0801a8    	add	x8, x13, x8
1000015b0: cb090108    	sub	x8, x8, x9
1000015b4: 91000508    	add	x8, x8, #0x1
1000015b8: fd401181    	ldr	d1, [x12, #0x20]
1000015bc: fd401162    	ldr	d2, [x11, #0x20]
1000015c0: 2e21dc41    	fmul.2s	v1, v2, v1
1000015c4: fc440582    	ldr	d2, [x12], #0x40
1000015c8: fc440563    	ldr	d3, [x11], #0x40
1000015cc: 2e22dc62    	fmul.2s	v2, v3, v2
1000015d0: 0e813841    	zip1.2s	v1, v2, v1
1000015d4: 0e21d400    	fadd.2s	v0, v0, v1
1000015d8: f1000908    	subs	x8, x8, #0x2
1000015dc: 54fffee1    	b.ne	0x1000015b8 <__Z4testIfEvj+0xfe4>
1000015e0: 7e30d802    	faddp.2s	s2, v0
1000015e4: bc6a7a60    	ldr	s0, [x19, x10, lsl #2]
1000015e8: bc6a7a81    	ldr	s1, [x20, x10, lsl #2]
1000015ec: 1f000822    	fmadd	s2, s1, s0, s2
1000015f0: 9100214a    	add	x10, x10, #0x8
1000015f4: eb17015f    	cmp	x10, x23
1000015f8: 54ffff63    	b.lo	0x1000015e4 <__Z4testIfEvj+0x1010>
1000015fc: 71001edf    	cmp	w22, #0x7
100001600: 540011a0    	b.eq	0x100001834 <__Z4testIfEvj+0x1260>
100001604: d10022ea    	sub	x10, x23, #0x8
100001608: f100415f    	cmp	x10, #0x10
10000160c: 54000062    	b.hs	0x100001618 <__Z4testIfEvj+0x1044>
100001610: 528000ea    	mov	w10, #0x7               ; =7
100001614: 14000082    	b	0x10000181c <__Z4testIfEvj+0x1248>
100001618: d343fd48    	lsr	x8, x10, #3
10000161c: 9100050b    	add	x11, x8, #0x1
100001620: f102015f    	cmp	x10, #0x80
100001624: 54000062    	b.hs	0x100001630 <__Z4testIfEvj+0x105c>
100001628: d2800009    	mov	x9, #0x0                ; =0
10000162c: 14000062    	b	0x1000017b4 <__Z4testIfEvj+0x11e0>
100001630: f2400d69    	ands	x9, x11, #0xf
100001634: 5280020c    	mov	w12, #0x10              ; =16
100001638: 9a89018c    	csel	x12, x12, x9, eq
10000163c: cb0c0169    	sub	x9, x11, x12
100001640: 6f00e400    	movi.2d	v0, #0000000000000000
100001644: 6e040440    	mov.s	v0[0], v2[0]
100001648: 6f00e401    	movi.2d	v1, #0000000000000000
10000164c: 9100632d    	add	x13, x25, #0x18
100001650: 9100630e    	add	x14, x24, #0x18
100001654: aa0b03ef    	mov	x15, x11
100001658: 6f00e402    	movi.2d	v2, #0000000000000000
10000165c: 6f00e403    	movi.2d	v3, #0000000000000000
100001660: d10601d0    	sub	x16, x14, #0x180
100001664: 3dc00204    	ldr	q4, [x16]
100001668: 3dc00a05    	ldr	q5, [x16, #0x20]
10000166c: 3dc01206    	ldr	q6, [x16, #0x40]
100001670: 3dc01a07    	ldr	q7, [x16, #0x60]
100001674: 3cd001d0    	ldur	q16, [x14, #-0x100]
100001678: 3cd201d1    	ldur	q17, [x14, #-0xe0]
10000167c: 3cd401d2    	ldur	q18, [x14, #-0xc0]
100001680: d10601b0    	sub	x16, x13, #0x180
100001684: 3dc01a13    	ldr	q19, [x16, #0x60]
100001688: 6e27de67    	fmul.4s	v7, v19, v7
10000168c: 3dc01213    	ldr	q19, [x16, #0x40]
100001690: 6e26de66    	fmul.4s	v6, v19, v6
100001694: 3dc00a13    	ldr	q19, [x16, #0x20]
100001698: 6e25de65    	fmul.4s	v5, v19, v5
10000169c: 3dc00213    	ldr	q19, [x16]
1000016a0: 6e24de64    	fmul.4s	v4, v19, v4
1000016a4: 3cd601d3    	ldur	q19, [x14, #-0xa0]
1000016a8: 4e853884    	zip1.4s	v4, v4, v5
1000016ac: 3cd801c5    	ldur	q5, [x14, #-0x80]
1000016b0: 4e8738c7    	zip1.4s	v7, v6, v7
1000016b4: 6e0740c6    	ext.16b	v6, v6, v7, #0x8
1000016b8: 6e1844c4    	mov.d	v4[1], v6[1]
1000016bc: 3cda01c6    	ldur	q6, [x14, #-0x60]
1000016c0: 3cd601a7    	ldur	q7, [x13, #-0xa0]
1000016c4: 6e33dce7    	fmul.4s	v7, v7, v19
1000016c8: 3cd401b3    	ldur	q19, [x13, #-0xc0]
1000016cc: 6e32de72    	fmul.4s	v18, v19, v18
1000016d0: 3cd201b3    	ldur	q19, [x13, #-0xe0]
1000016d4: 6e31de71    	fmul.4s	v17, v19, v17
1000016d8: 3cd001b3    	ldur	q19, [x13, #-0x100]
1000016dc: 6e30de70    	fmul.4s	v16, v19, v16
1000016e0: 3cdc01d3    	ldur	q19, [x14, #-0x40]
1000016e4: 4e913a10    	zip1.4s	v16, v16, v17
1000016e8: 3cde01d1    	ldur	q17, [x14, #-0x20]
1000016ec: 4e873a47    	zip1.4s	v7, v18, v7
1000016f0: 6e074247    	ext.16b	v7, v18, v7, #0x8
1000016f4: 3dc001d2    	ldr	q18, [x14]
1000016f8: 6e1844f0    	mov.d	v16[1], v7[1]
1000016fc: 3cde01a7    	ldur	q7, [x13, #-0x20]
100001700: 6e31dce7    	fmul.4s	v7, v7, v17
100001704: 3cdc01b1    	ldur	q17, [x13, #-0x40]
100001708: 6e33de31    	fmul.4s	v17, v17, v19
10000170c: 3cda01b3    	ldur	q19, [x13, #-0x60]
100001710: 6e26de66    	fmul.4s	v6, v19, v6
100001714: 3cd801b3    	ldur	q19, [x13, #-0x80]
100001718: 6e25de65    	fmul.4s	v5, v19, v5
10000171c: 3dc009d3    	ldr	q19, [x14, #0x20]
100001720: 4e8638a5    	zip1.4s	v5, v5, v6
100001724: 3dc011c6    	ldr	q6, [x14, #0x40]
100001728: 4e873a27    	zip1.4s	v7, v17, v7
10000172c: 6e074227    	ext.16b	v7, v17, v7, #0x8
100001730: 3dc019d1    	ldr	q17, [x14, #0x60]
100001734: 6e1844e5    	mov.d	v5[1], v7[1]
100001738: 3dc019a7    	ldr	q7, [x13, #0x60]
10000173c: 6e31dce7    	fmul.4s	v7, v7, v17
100001740: 3dc011b1    	ldr	q17, [x13, #0x40]
100001744: 6e26de26    	fmul.4s	v6, v17, v6
100001748: 3dc009b1    	ldr	q17, [x13, #0x20]
10000174c: 6e33de31    	fmul.4s	v17, v17, v19
100001750: 3dc001b3    	ldr	q19, [x13]
100001754: 6e32de72    	fmul.4s	v18, v19, v18
100001758: 4e913a51    	zip1.4s	v17, v18, v17
10000175c: 4e8738c7    	zip1.4s	v7, v6, v7
100001760: 6e0740c6    	ext.16b	v6, v6, v7, #0x8
100001764: 6e1844d1    	mov.d	v17[1], v6[1]
100001768: 4e24d400    	fadd.4s	v0, v0, v4
10000176c: 4e30d421    	fadd.4s	v1, v1, v16
100001770: 4e25d442    	fadd.4s	v2, v2, v5
100001774: 4e31d463    	fadd.4s	v3, v3, v17
100001778: 910801ad    	add	x13, x13, #0x200
10000177c: d10041ef    	sub	x15, x15, #0x10
100001780: 910801ce    	add	x14, x14, #0x200
100001784: eb0f019f    	cmp	x12, x15
100001788: 54fff6c1    	b.ne	0x100001660 <__Z4testIfEvj+0x108c>
10000178c: 4e20d420    	fadd.4s	v0, v1, v0
100001790: 4e20d440    	fadd.4s	v0, v2, v0
100001794: 4e20d460    	fadd.4s	v0, v3, v0
100001798: 6e20d400    	faddp.4s	v0, v0, v0
10000179c: 7e30d802    	faddp.2s	s2, v0
1000017a0: f1000d9f    	cmp	x12, #0x3
1000017a4: 54000082    	b.hs	0x1000017b4 <__Z4testIfEvj+0x11e0>
1000017a8: 528000e8    	mov	w8, #0x7                ; =7
1000017ac: aa090d0a    	orr	x10, x8, x9, lsl #3
1000017b0: 1400001b    	b	0x10000181c <__Z4testIfEvj+0x1248>
1000017b4: f27d015f    	tst	x10, #0x8
1000017b8: 9280002a    	mov	x10, #-0x2              ; =-2
1000017bc: 9a8a154d    	cinc	x13, x10, eq
1000017c0: 8b0b01aa    	add	x10, x13, x11
1000017c4: 528000eb    	mov	w11, #0x7               ; =7
1000017c8: aa0a0d6a    	orr	x10, x11, x10, lsl #3
1000017cc: 2f00e400    	movi	d0, #0000000000000000
1000017d0: 6e040440    	mov.s	v0[0], v2[0]
1000017d4: 5280038b    	mov	w11, #0x1c              ; =28
1000017d8: aa09156c    	orr	x12, x11, x9, lsl #5
1000017dc: 8b0c028b    	add	x11, x20, x12
1000017e0: 8b0c026c    	add	x12, x19, x12
1000017e4: 8b0801a8    	add	x8, x13, x8
1000017e8: cb090108    	sub	x8, x8, x9
1000017ec: 91000508    	add	x8, x8, #0x1
1000017f0: fd401181    	ldr	d1, [x12, #0x20]
1000017f4: fd401162    	ldr	d2, [x11, #0x20]
1000017f8: 2e21dc41    	fmul.2s	v1, v2, v1
1000017fc: fc440582    	ldr	d2, [x12], #0x40
100001800: fc440563    	ldr	d3, [x11], #0x40
100001804: 2e22dc62    	fmul.2s	v2, v3, v2
100001808: 0e813841    	zip1.2s	v1, v2, v1
10000180c: 0e21d400    	fadd.2s	v0, v0, v1
100001810: f1000908    	subs	x8, x8, #0x2
100001814: 54fffee1    	b.ne	0x1000017f0 <__Z4testIfEvj+0x121c>
100001818: 7e30d802    	faddp.2s	s2, v0
10000181c: bc6a7a60    	ldr	s0, [x19, x10, lsl #2]
100001820: bc6a7a81    	ldr	s1, [x20, x10, lsl #2]
100001824: 1f000822    	fmadd	s2, s1, s0, s2
100001828: 9100214a    	add	x10, x10, #0x8
10000182c: eb17015f    	cmp	x10, x23
100001830: 54ffff63    	b.lo	0x10000181c <__Z4testIfEvj+0x1248>
100001834: bd000fe2    	str	s2, [sp, #0xc]
100001838: 94000046    	bl	0x100001950 <_strlen+0x100001950>
10000183c: cb150008    	sub	x8, x0, x21
100001840: 9e620100    	scvtf	d0, x8
100001844: d29ad2a8    	mov	x8, #0xd695             ; =54933
100001848: f2bd04c8    	movk	x8, #0xe826, lsl #16
10000184c: f2c5c168    	movk	x8, #0x2e0b, lsl #32
100001850: f2e7c228    	movk	x8, #0x3e11, lsl #48
100001854: 9e670101    	fmov	d1, x8
100001858: 1e610800    	fmul	d0, d0, d1
10000185c: f0000000    	adrp	x0, 0x100004000 <_strlen+0x100004000>
100001860: f9400c00    	ldr	x0, [x0, #0x18]
100001864: 94000035    	bl	0x100001938 <_strlen+0x100001938>
100001868: 910033e8    	add	x8, sp, #0xc
10000186c: aa1303e0    	mov	x0, x19
100001870: 9400004d    	bl	0x1000019a4 <_strlen+0x1000019a4>
100001874: aa1403e0    	mov	x0, x20
100001878: 9400004b    	bl	0x1000019a4 <_strlen+0x1000019a4>
10000187c: a9457bfd    	ldp	x29, x30, [sp, #0x50]
100001880: a9444ff4    	ldp	x20, x19, [sp, #0x40]
100001884: a94357f6    	ldp	x22, x21, [sp, #0x30]
100001888: a9425ff8    	ldp	x24, x23, [sp, #0x20]
10000188c: a94167fa    	ldp	x26, x25, [sp, #0x10]
100001890: 910183ff    	add	sp, sp, #0x60
100001894: d65f03c0    	ret

0000000100001898 <__ZNSt3__112basic_stringIcNS_11char_traitsIcEENS_9allocatorIcEEE20__throw_length_errorB8ne200100Ev>:
100001898: a9bf7bfd    	stp	x29, x30, [sp, #-0x10]!
10000189c: 910003fd    	mov	x29, sp
1000018a0: 90000000    	adrp	x0, 0x100001000 <__Z4testIfEvj+0xa2c>
1000018a4: 9127e000    	add	x0, x0, #0x9f8
1000018a8: 94000001    	bl	0x1000018ac <__ZNSt3__120__throw_length_errorB8ne200100EPKc>

00000001000018ac <__ZNSt3__120__throw_length_errorB8ne200100EPKc>:
1000018ac: a9be4ff4    	stp	x20, x19, [sp, #-0x20]!
1000018b0: a9017bfd    	stp	x29, x30, [sp, #0x10]
1000018b4: 910043fd    	add	x29, sp, #0x10
1000018b8: aa0003f4    	mov	x20, x0
1000018bc: 52800200    	mov	w0, #0x10               ; =16
1000018c0: 9400002d    	bl	0x100001974 <_strlen+0x100001974>
1000018c4: aa0003f3    	mov	x19, x0
1000018c8: aa1403e1    	mov	x1, x20
1000018cc: 9400000c    	bl	0x1000018fc <__ZNSt12length_errorC1B8ne200100EPKc>
1000018d0: f0000001    	adrp	x1, 0x100004000 <_strlen+0x100004000>
1000018d4: f9404421    	ldr	x1, [x1, #0x88]
1000018d8: f0000002    	adrp	x2, 0x100004000 <_strlen+0x100004000>
1000018dc: f9400442    	ldr	x2, [x2, #0x8]
1000018e0: aa1303e0    	mov	x0, x19
1000018e4: 9400002a    	bl	0x10000198c <_strlen+0x10000198c>
1000018e8: aa0003f4    	mov	x20, x0
1000018ec: aa1303e0    	mov	x0, x19
1000018f0: 94000024    	bl	0x100001980 <_strlen+0x100001980>
1000018f4: aa1403e0    	mov	x0, x20
1000018f8: 9400000a    	bl	0x100001920 <_strlen+0x100001920>

00000001000018fc <__ZNSt12length_errorC1B8ne200100EPKc>:
1000018fc: a9bf7bfd    	stp	x29, x30, [sp, #-0x10]!
100001900: 910003fd    	mov	x29, sp
100001904: 9400000a    	bl	0x10000192c <_strlen+0x10000192c>
100001908: f0000008    	adrp	x8, 0x100004000 <_strlen+0x100004000>
10000190c: f9401908    	ldr	x8, [x8, #0x30]
100001910: 91004108    	add	x8, x8, #0x10
100001914: f9000008    	str	x8, [x0]
100001918: a8c17bfd    	ldp	x29, x30, [sp], #0x10
10000191c: d65f03c0    	ret

Disassembly of section __TEXT,__stubs:

0000000100001920 <__stubs>:
100001920: f0000010    	adrp	x16, 0x100004000 <_strlen+0x100004000>
100001924: f9402e10    	ldr	x16, [x16, #0x58]
100001928: d61f0200    	br	x16
10000192c: f0000010    	adrp	x16, 0x100004000 <_strlen+0x100004000>
100001930: f9400210    	ldr	x16, [x16]
100001934: d61f0200    	br	x16
100001938: f0000010    	adrp	x16, 0x100004000 <_strlen+0x100004000>
10000193c: f9400a10    	ldr	x16, [x16, #0x10]
100001940: d61f0200    	br	x16
100001944: f0000010    	adrp	x16, 0x100004000 <_strlen+0x100004000>
100001948: f9401210    	ldr	x16, [x16, #0x20]
10000194c: d61f0200    	br	x16
100001950: f0000010    	adrp	x16, 0x100004000 <_strlen+0x100004000>
100001954: f9401610    	ldr	x16, [x16, #0x28]
100001958: d61f0200    	br	x16
10000195c: f0000010    	adrp	x16, 0x100004000 <_strlen+0x100004000>
100001960: f9404a10    	ldr	x16, [x16, #0x90]
100001964: d61f0200    	br	x16
100001968: f0000010    	adrp	x16, 0x100004000 <_strlen+0x100004000>
10000196c: f9404e10    	ldr	x16, [x16, #0x98]
100001970: d61f0200    	br	x16
100001974: f0000010    	adrp	x16, 0x100004000 <_strlen+0x100004000>
100001978: f9401e10    	ldr	x16, [x16, #0x38]
10000197c: d61f0200    	br	x16
100001980: f0000010    	adrp	x16, 0x100004000 <_strlen+0x100004000>
100001984: f9402210    	ldr	x16, [x16, #0x40]
100001988: d61f0200    	br	x16
10000198c: f0000010    	adrp	x16, 0x100004000 <_strlen+0x100004000>
100001990: f9402610    	ldr	x16, [x16, #0x48]
100001994: d61f0200    	br	x16
100001998: f0000010    	adrp	x16, 0x100004000 <_strlen+0x100004000>
10000199c: f9403210    	ldr	x16, [x16, #0x60]
1000019a0: d61f0200    	br	x16
1000019a4: f0000010    	adrp	x16, 0x100004000 <_strlen+0x100004000>
1000019a8: f9403610    	ldr	x16, [x16, #0x68]
1000019ac: d61f0200    	br	x16
1000019b0: f0000010    	adrp	x16, 0x100004000 <_strlen+0x100004000>
1000019b4: f9403a10    	ldr	x16, [x16, #0x70]
1000019b8: d61f0200    	br	x16
1000019bc: f0000010    	adrp	x16, 0x100004000 <_strlen+0x100004000>
1000019c0: f9403e10    	ldr	x16, [x16, #0x78]
1000019c4: d61f0200    	br	x16
1000019c8: f0000010    	adrp	x16, 0x100004000 <_strlen+0x100004000>
1000019cc: f9404210    	ldr	x16, [x16, #0x80]
1000019d0: d61f0200    	br	x16
