
program.out:	file format mach-o arm64

Disassembly of section __TEXT,__text:

00000001000004e8 <_main>:
1000004e8: d10143ff    	sub	sp, sp, #0x50
1000004ec: a90257f6    	stp	x22, x21, [sp, #0x20]
1000004f0: a9034ff4    	stp	x20, x19, [sp, #0x30]
1000004f4: a9047bfd    	stp	x29, x30, [sp, #0x40]
1000004f8: 910103fd    	add	x29, sp, #0x40
1000004fc: f9400434    	ldr	x20, [x1, #0x8]
100000500: aa1403e0    	mov	x0, x20
100000504: 94000106    	bl	0x10000091c <_strlen+0x10000091c>
100000508: b27defe8    	mov	x8, #0x7ffffffffffffff8 ; =9223372036854775800
10000050c: eb08001f    	cmp	x0, x8
100000510: 54000542    	b.hs	0x1000005b8 <_main+0xd0>
100000514: aa0003f3    	mov	x19, x0
100000518: f1005c1f    	cmp	x0, #0x17
10000051c: 540000a2    	b.hs	0x100000530 <_main+0x48>
100000520: 39007ff3    	strb	w19, [sp, #0x1f]
100000524: 910023f5    	add	x21, sp, #0x8
100000528: b5000193    	cbnz	x19, 0x100000558 <_main+0x70>
10000052c: 1400000f    	b	0x100000568 <_main+0x80>
100000530: b2400a68    	orr	x8, x19, #0x7
100000534: f1005d1f    	cmp	x8, #0x17
100000538: 52800329    	mov	w9, #0x19               ; =25
10000053c: 9a880536    	csinc	x22, x9, x8, eq
100000540: aa1603e0    	mov	x0, x22
100000544: 940000de    	bl	0x1000008bc <_strlen+0x1000008bc>
100000548: aa0003f5    	mov	x21, x0
10000054c: b24102c8    	orr	x8, x22, #0x8000000000000000
100000550: a90123f3    	stp	x19, x8, [sp, #0x10]
100000554: f90007e0    	str	x0, [sp, #0x8]
100000558: aa1503e0    	mov	x0, x21
10000055c: aa1403e1    	mov	x1, x20
100000560: aa1303e2    	mov	x2, x19
100000564: 940000e8    	bl	0x100000904 <_strlen+0x100000904>
100000568: 38336abf    	strb	wzr, [x21, x19]
10000056c: 910023e0    	add	x0, sp, #0x8
100000570: d2800001    	mov	x1, #0x0                ; =0
100000574: 52800142    	mov	w2, #0xa                ; =10
100000578: 940000c8    	bl	0x100000898 <_strlen+0x100000898>
10000057c: 39c07fe8    	ldrsb	w8, [sp, #0x1f]
100000580: 36f800c8    	tbz	w8, #0x1f, 0x100000598 <_main+0xb0>
100000584: f94007e8    	ldr	x8, [sp, #0x8]
100000588: aa0003f3    	mov	x19, x0
10000058c: aa0803e0    	mov	x0, x8
100000590: 940000c8    	bl	0x1000008b0 <_strlen+0x1000008b0>
100000594: aa1303e0    	mov	x0, x19
100000598: 11000400    	add	w0, w0, #0x1
10000059c: 9400000f    	bl	0x1000005d8 <__Z4testIdEvj>
1000005a0: 52800000    	mov	w0, #0x0                ; =0
1000005a4: a9447bfd    	ldp	x29, x30, [sp, #0x40]
1000005a8: a9434ff4    	ldp	x20, x19, [sp, #0x30]
1000005ac: a94257f6    	ldp	x22, x21, [sp, #0x20]
1000005b0: 910143ff    	add	sp, sp, #0x50
1000005b4: d65f03c0    	ret
1000005b8: 9400008d    	bl	0x1000007ec <__ZNSt3__112basic_stringIcNS_11char_traitsIcEENS_9allocatorIcEEE20__throw_length_errorB8ne200100Ev>
1000005bc: aa0003f3    	mov	x19, x0
1000005c0: 39c07fe8    	ldrsb	w8, [sp, #0x1f]
1000005c4: 36f80068    	tbz	w8, #0x1f, 0x1000005d0 <_main+0xe8>
1000005c8: f94007e0    	ldr	x0, [sp, #0x8]
1000005cc: 940000b9    	bl	0x1000008b0 <_strlen+0x1000008b0>
1000005d0: aa1303e0    	mov	x0, x19
1000005d4: 940000a8    	bl	0x100000874 <_strlen+0x100000874>

00000001000005d8 <__Z4testIdEvj>:
1000005d8: d101c3ff    	sub	sp, sp, #0x70
1000005dc: 6d0123e9    	stp	d9, d8, [sp, #0x10]
1000005e0: a90267fa    	stp	x26, x25, [sp, #0x20]
1000005e4: a9035ff8    	stp	x24, x23, [sp, #0x30]
1000005e8: a90457f6    	stp	x22, x21, [sp, #0x40]
1000005ec: a9054ff4    	stp	x20, x19, [sp, #0x50]
1000005f0: a9067bfd    	stp	x29, x30, [sp, #0x60]
1000005f4: 910183fd    	add	x29, sp, #0x60
1000005f8: aa0003f5    	mov	x21, x0
1000005fc: 2a0003f8    	mov	w24, w0
100000600: d37d7c08    	ubfiz	x8, x0, #3, #32
100000604: 91005d16    	add	x22, x8, #0x17
100000608: 927c7ec1    	and	x1, x22, #0xffffffff0
10000060c: 52800200    	mov	w0, #0x10               ; =16
100000610: 940000b7    	bl	0x1000008ec <_strlen+0x1000008ec>
100000614: aa0003f3    	mov	x19, x0
100000618: 340003d5    	cbz	w21, 0x100000690 <__Z4testIdEvj+0xb8>
10000061c: 91002274    	add	x20, x19, #0x8
100000620: d2a00408    	mov	x8, #0x200000           ; =2097152
100000624: f2e7c008    	movk	x8, #0x3e00, lsl #48
100000628: 9e670108    	fmov	d8, x8
10000062c: aa1803f7    	mov	x23, x24
100000630: 940000b8    	bl	0x100000910 <_strlen+0x100000910>
100000634: 1e620000    	scvtf	d0, w0
100000638: 1e680800    	fmul	d0, d0, d8
10000063c: fc008680    	str	d0, [x20], #0x8
100000640: f10006f7    	subs	x23, x23, #0x1
100000644: 54ffff61    	b.ne	0x100000630 <__Z4testIdEvj+0x58>
100000648: 927c7ec1    	and	x1, x22, #0xffffffff0
10000064c: 52800200    	mov	w0, #0x10               ; =16
100000650: 940000a7    	bl	0x1000008ec <_strlen+0x1000008ec>
100000654: aa0003f4    	mov	x20, x0
100000658: 91002019    	add	x25, x0, #0x8
10000065c: 52800117    	mov	w23, #0x8               ; =8
100000660: d2a00408    	mov	x8, #0x200000           ; =2097152
100000664: f2e7c008    	movk	x8, #0x3e00, lsl #48
100000668: 9e670108    	fmov	d8, x8
10000066c: aa1803fa    	mov	x26, x24
100000670: 940000a8    	bl	0x100000910 <_strlen+0x100000910>
100000674: 1e620000    	scvtf	d0, w0
100000678: 1e680800    	fmul	d0, d0, d8
10000067c: fc376a80    	str	d0, [x20, x23]
100000680: 910022f7    	add	x23, x23, #0x8
100000684: f100075a    	subs	x26, x26, #0x1
100000688: 54ffff41    	b.ne	0x100000670 <__Z4testIdEvj+0x98>
10000068c: 14000006    	b	0x1000006a4 <__Z4testIdEvj+0xcc>
100000690: 927c7ec1    	and	x1, x22, #0xffffffff0
100000694: 52800200    	mov	w0, #0x10               ; =16
100000698: 94000095    	bl	0x1000008ec <_strlen+0x1000008ec>
10000069c: aa0003f4    	mov	x20, x0
1000006a0: 91002019    	add	x25, x0, #0x8
1000006a4: 927c7ec1    	and	x1, x22, #0xffffffff0
1000006a8: 52800200    	mov	w0, #0x10               ; =16
1000006ac: 94000090    	bl	0x1000008ec <_strlen+0x1000008ec>
1000006b0: aa0003f7    	mov	x23, x0
1000006b4: 91002008    	add	x8, x0, #0x8
1000006b8: f90007e8    	str	x8, [sp, #0x8]
1000006bc: 9400007a    	bl	0x1000008a4 <_strlen+0x1000008a4>
1000006c0: aa0003f6    	mov	x22, x0
1000006c4: 340005d5    	cbz	w21, 0x10000077c <__Z4testIdEvj+0x1a4>
1000006c8: 71001ebf    	cmp	w21, #0x7
1000006cc: 54000068    	b.hi	0x1000006d8 <__Z4testIdEvj+0x100>
1000006d0: d2800008    	mov	x8, #0x0                ; =0
1000006d4: 14000019    	b	0x100000738 <__Z4testIdEvj+0x160>
1000006d8: 927d7308    	and	x8, x24, #0xfffffff8
1000006dc: 9100a2e9    	add	x9, x23, #0x28
1000006e0: 9100832a    	add	x10, x25, #0x20
1000006e4: 9100a26b    	add	x11, x19, #0x28
1000006e8: d289c78c    	mov	x12, #0x4e3c            ; =20028
1000006ec: f2b23a2c    	movk	x12, #0x91d1, lsl #16
1000006f0: f2dfcb8c    	movk	x12, #0xfe5c, lsl #32
1000006f4: f2e7fd2c    	movk	x12, #0x3fe9, lsl #48
1000006f8: 4e080d80    	dup.2d	v0, x12
1000006fc: aa0803ec    	mov	x12, x8
100000700: ad7f0961    	ldp	q1, q2, [x11, #-0x20]
100000704: acc21163    	ldp	q3, q4, [x11], #0x40
100000708: ad7f1945    	ldp	q5, q6, [x10, #-0x20]
10000070c: acc24147    	ldp	q7, q16, [x10], #0x40
100000710: 4e60cc25    	fmla.2d	v5, v1, v0
100000714: 4e60cc46    	fmla.2d	v6, v2, v0
100000718: 4e60cc67    	fmla.2d	v7, v3, v0
10000071c: 4e60cc90    	fmla.2d	v16, v4, v0
100000720: ad3f1925    	stp	q5, q6, [x9, #-0x20]
100000724: ac824127    	stp	q7, q16, [x9], #0x40
100000728: f100218c    	subs	x12, x12, #0x8
10000072c: 54fffea1    	b.ne	0x100000700 <__Z4testIdEvj+0x128>
100000730: eb18011f    	cmp	x8, x24
100000734: 54000240    	b.eq	0x10000077c <__Z4testIdEvj+0x1a4>
100000738: d37df10b    	lsl	x11, x8, #3
10000073c: 9100216a    	add	x10, x11, #0x8
100000740: 8b0a02e9    	add	x9, x23, x10
100000744: 8b0a026a    	add	x10, x19, x10
100000748: cb080308    	sub	x8, x24, x8
10000074c: 8b0b032b    	add	x11, x25, x11
100000750: d289c78c    	mov	x12, #0x4e3c            ; =20028
100000754: f2b23a2c    	movk	x12, #0x91d1, lsl #16
100000758: f2dfcb8c    	movk	x12, #0xfe5c, lsl #32
10000075c: f2e7fd2c    	movk	x12, #0x3fe9, lsl #48
100000760: 9e670180    	fmov	d0, x12
100000764: fc408541    	ldr	d1, [x10], #0x8
100000768: fc408562    	ldr	d2, [x11], #0x8
10000076c: 1f400821    	fmadd	d1, d1, d0, d2
100000770: fc008521    	str	d1, [x9], #0x8
100000774: f1000508    	subs	x8, x8, #0x1
100000778: 54ffff61    	b.ne	0x100000764 <__Z4testIdEvj+0x18c>
10000077c: 9400004a    	bl	0x1000008a4 <_strlen+0x1000008a4>
100000780: cb160008    	sub	x8, x0, x22
100000784: 9e620100    	scvtf	d0, x8
100000788: d29ad2a8    	mov	x8, #0xd695             ; =54933
10000078c: f2bd04c8    	movk	x8, #0xe826, lsl #16
100000790: f2c5c168    	movk	x8, #0x2e0b, lsl #32
100000794: f2e7c228    	movk	x8, #0x3e11, lsl #48
100000798: 9e670101    	fmov	d1, x8
10000079c: 1e610800    	fmul	d0, d0, d1
1000007a0: 90000020    	adrp	x0, 0x100004000 <_strlen+0x100004000>
1000007a4: f9400c00    	ldr	x0, [x0, #0x18]
1000007a8: 94000039    	bl	0x10000088c <_strlen+0x10000088c>
1000007ac: 910023e8    	add	x8, sp, #0x8
1000007b0: f94007e8    	ldr	x8, [sp, #0x8]
1000007b4: d1002100    	sub	x0, x8, #0x8
1000007b8: 94000050    	bl	0x1000008f8 <_strlen+0x1000008f8>
1000007bc: aa1303e0    	mov	x0, x19
1000007c0: 9400004e    	bl	0x1000008f8 <_strlen+0x1000008f8>
1000007c4: aa1403e0    	mov	x0, x20
1000007c8: 9400004c    	bl	0x1000008f8 <_strlen+0x1000008f8>
1000007cc: a9467bfd    	ldp	x29, x30, [sp, #0x60]
1000007d0: a9454ff4    	ldp	x20, x19, [sp, #0x50]
1000007d4: a94457f6    	ldp	x22, x21, [sp, #0x40]
1000007d8: a9435ff8    	ldp	x24, x23, [sp, #0x30]
1000007dc: a94267fa    	ldp	x26, x25, [sp, #0x20]
1000007e0: 6d4123e9    	ldp	d9, d8, [sp, #0x10]
1000007e4: 9101c3ff    	add	sp, sp, #0x70
1000007e8: d65f03c0    	ret

00000001000007ec <__ZNSt3__112basic_stringIcNS_11char_traitsIcEENS_9allocatorIcEEE20__throw_length_errorB8ne200100Ev>:
1000007ec: a9bf7bfd    	stp	x29, x30, [sp, #-0x10]!
1000007f0: 910003fd    	mov	x29, sp
1000007f4: 90000000    	adrp	x0, 0x100000000 <_strlen+0x100000000>
1000007f8: 91253000    	add	x0, x0, #0x94c
1000007fc: 94000001    	bl	0x100000800 <__ZNSt3__120__throw_length_errorB8ne200100EPKc>

0000000100000800 <__ZNSt3__120__throw_length_errorB8ne200100EPKc>:
100000800: a9be4ff4    	stp	x20, x19, [sp, #-0x20]!
100000804: a9017bfd    	stp	x29, x30, [sp, #0x10]
100000808: 910043fd    	add	x29, sp, #0x10
10000080c: aa0003f4    	mov	x20, x0
100000810: 52800200    	mov	w0, #0x10               ; =16
100000814: 9400002d    	bl	0x1000008c8 <_strlen+0x1000008c8>
100000818: aa0003f3    	mov	x19, x0
10000081c: aa1403e1    	mov	x1, x20
100000820: 9400000c    	bl	0x100000850 <__ZNSt12length_errorC1B8ne200100EPKc>
100000824: 90000021    	adrp	x1, 0x100004000 <_strlen+0x100004000>
100000828: f9404421    	ldr	x1, [x1, #0x88]
10000082c: 90000022    	adrp	x2, 0x100004000 <_strlen+0x100004000>
100000830: f9400442    	ldr	x2, [x2, #0x8]
100000834: aa1303e0    	mov	x0, x19
100000838: 9400002a    	bl	0x1000008e0 <_strlen+0x1000008e0>
10000083c: aa0003f4    	mov	x20, x0
100000840: aa1303e0    	mov	x0, x19
100000844: 94000024    	bl	0x1000008d4 <_strlen+0x1000008d4>
100000848: aa1403e0    	mov	x0, x20
10000084c: 9400000a    	bl	0x100000874 <_strlen+0x100000874>

0000000100000850 <__ZNSt12length_errorC1B8ne200100EPKc>:
100000850: a9bf7bfd    	stp	x29, x30, [sp, #-0x10]!
100000854: 910003fd    	mov	x29, sp
100000858: 9400000a    	bl	0x100000880 <_strlen+0x100000880>
10000085c: 90000028    	adrp	x8, 0x100004000 <_strlen+0x100004000>
100000860: f9401908    	ldr	x8, [x8, #0x30]
100000864: 91004108    	add	x8, x8, #0x10
100000868: f9000008    	str	x8, [x0]
10000086c: a8c17bfd    	ldp	x29, x30, [sp], #0x10
100000870: d65f03c0    	ret

Disassembly of section __TEXT,__stubs:

0000000100000874 <__stubs>:
100000874: 90000030    	adrp	x16, 0x100004000 <_strlen+0x100004000>
100000878: f9402e10    	ldr	x16, [x16, #0x58]
10000087c: d61f0200    	br	x16
100000880: 90000030    	adrp	x16, 0x100004000 <_strlen+0x100004000>
100000884: f9400210    	ldr	x16, [x16]
100000888: d61f0200    	br	x16
10000088c: 90000030    	adrp	x16, 0x100004000 <_strlen+0x100004000>
100000890: f9400a10    	ldr	x16, [x16, #0x10]
100000894: d61f0200    	br	x16
100000898: 90000030    	adrp	x16, 0x100004000 <_strlen+0x100004000>
10000089c: f9401210    	ldr	x16, [x16, #0x20]
1000008a0: d61f0200    	br	x16
1000008a4: 90000030    	adrp	x16, 0x100004000 <_strlen+0x100004000>
1000008a8: f9401610    	ldr	x16, [x16, #0x28]
1000008ac: d61f0200    	br	x16
1000008b0: 90000030    	adrp	x16, 0x100004000 <_strlen+0x100004000>
1000008b4: f9404a10    	ldr	x16, [x16, #0x90]
1000008b8: d61f0200    	br	x16
1000008bc: 90000030    	adrp	x16, 0x100004000 <_strlen+0x100004000>
1000008c0: f9404e10    	ldr	x16, [x16, #0x98]
1000008c4: d61f0200    	br	x16
1000008c8: 90000030    	adrp	x16, 0x100004000 <_strlen+0x100004000>
1000008cc: f9401e10    	ldr	x16, [x16, #0x38]
1000008d0: d61f0200    	br	x16
1000008d4: 90000030    	adrp	x16, 0x100004000 <_strlen+0x100004000>
1000008d8: f9402210    	ldr	x16, [x16, #0x40]
1000008dc: d61f0200    	br	x16
1000008e0: 90000030    	adrp	x16, 0x100004000 <_strlen+0x100004000>
1000008e4: f9402610    	ldr	x16, [x16, #0x48]
1000008e8: d61f0200    	br	x16
1000008ec: 90000030    	adrp	x16, 0x100004000 <_strlen+0x100004000>
1000008f0: f9403210    	ldr	x16, [x16, #0x60]
1000008f4: d61f0200    	br	x16
1000008f8: 90000030    	adrp	x16, 0x100004000 <_strlen+0x100004000>
1000008fc: f9403610    	ldr	x16, [x16, #0x68]
100000900: d61f0200    	br	x16
100000904: 90000030    	adrp	x16, 0x100004000 <_strlen+0x100004000>
100000908: f9403a10    	ldr	x16, [x16, #0x70]
10000090c: d61f0200    	br	x16
100000910: 90000030    	adrp	x16, 0x100004000 <_strlen+0x100004000>
100000914: f9403e10    	ldr	x16, [x16, #0x78]
100000918: d61f0200    	br	x16
10000091c: 90000030    	adrp	x16, 0x100004000 <_strlen+0x100004000>
100000920: f9404210    	ldr	x16, [x16, #0x80]
100000924: d61f0200    	br	x16
