
program.out:	file format mach-o arm64

Disassembly of section __TEXT,__text:

00000001000004e8 <_main>:
1000004e8: d10143ff    	sub	sp, sp, #0x50
1000004ec: a90257f6    	stp	x22, x21, [sp, #0x20]
1000004f0: a9034ff4    	stp	x20, x19, [sp, #0x30]
1000004f4: a9047bfd    	stp	x29, x30, [sp, #0x40]
1000004f8: 910103fd    	add	x29, sp, #0x40
1000004fc: f9400434    	ldr	x20, [x1, #0x8]
100000500: aa1403e0    	mov	x0, x20
100000504: 94000197    	bl	0x100000b60 <_strlen+0x100000b60>
100000508: b27defe8    	mov	x8, #0x7ffffffffffffff8 ; =9223372036854775800
10000050c: eb08001f    	cmp	x0, x8
100000510: 54000522    	b.hs	0x1000005b4 <_main+0xcc>
100000514: aa0003f3    	mov	x19, x0
100000518: f1005c1f    	cmp	x0, #0x17
10000051c: 540000a2    	b.hs	0x100000530 <_main+0x48>
100000520: 39007ff3    	strb	w19, [sp, #0x1f]
100000524: 910023f5    	add	x21, sp, #0x8
100000528: b5000193    	cbnz	x19, 0x100000558 <_main+0x70>
10000052c: 1400000f    	b	0x100000568 <_main+0x80>
100000530: b2400a68    	orr	x8, x19, #0x7
100000534: f1005d1f    	cmp	x8, #0x17
100000538: 52800329    	mov	w9, #0x19               ; =25
10000053c: 9a880536    	csinc	x22, x9, x8, eq
100000540: aa1603e0    	mov	x0, x22
100000544: 9400016f    	bl	0x100000b00 <_strlen+0x100000b00>
100000548: aa0003f5    	mov	x21, x0
10000054c: b24102c8    	orr	x8, x22, #0x8000000000000000
100000550: a90123f3    	stp	x19, x8, [sp, #0x10]
100000554: f90007e0    	str	x0, [sp, #0x8]
100000558: aa1503e0    	mov	x0, x21
10000055c: aa1403e1    	mov	x1, x20
100000560: aa1303e2    	mov	x2, x19
100000564: 94000179    	bl	0x100000b48 <_strlen+0x100000b48>
100000568: 38336abf    	strb	wzr, [x21, x19]
10000056c: 910023e0    	add	x0, sp, #0x8
100000570: d2800001    	mov	x1, #0x0                ; =0
100000574: 52800142    	mov	w2, #0xa                ; =10
100000578: 94000159    	bl	0x100000adc <_strlen+0x100000adc>
10000057c: 39c07fe8    	ldrsb	w8, [sp, #0x1f]
100000580: 36f800c8    	tbz	w8, #0x1f, 0x100000598 <_main+0xb0>
100000584: f94007e8    	ldr	x8, [sp, #0x8]
100000588: aa0003f3    	mov	x19, x0
10000058c: aa0803e0    	mov	x0, x8
100000590: 94000159    	bl	0x100000af4 <_strlen+0x100000af4>
100000594: aa1303e0    	mov	x0, x19
100000598: 9400000f    	bl	0x1000005d4 <__Z4testIfEvj>
10000059c: 52800000    	mov	w0, #0x0                ; =0
1000005a0: a9447bfd    	ldp	x29, x30, [sp, #0x40]
1000005a4: a9434ff4    	ldp	x20, x19, [sp, #0x30]
1000005a8: a94257f6    	ldp	x22, x21, [sp, #0x20]
1000005ac: 910143ff    	add	sp, sp, #0x50
1000005b0: d65f03c0    	ret
1000005b4: 9400011f    	bl	0x100000a30 <__ZNSt3__112basic_stringIcNS_11char_traitsIcEENS_9allocatorIcEEE20__throw_length_errorB8ne200100Ev>
1000005b8: aa0003f3    	mov	x19, x0
1000005bc: 39c07fe8    	ldrsb	w8, [sp, #0x1f]
1000005c0: 36f80068    	tbz	w8, #0x1f, 0x1000005cc <_main+0xe4>
1000005c4: f94007e0    	ldr	x0, [sp, #0x8]
1000005c8: 9400014b    	bl	0x100000af4 <_strlen+0x100000af4>
1000005cc: aa1303e0    	mov	x0, x19
1000005d0: 9400013a    	bl	0x100000ab8 <_strlen+0x100000ab8>

00000001000005d4 <__Z4testIfEvj>:
1000005d4: d10183ff    	sub	sp, sp, #0x60
1000005d8: a90167fa    	stp	x26, x25, [sp, #0x10]
1000005dc: a9025ff8    	stp	x24, x23, [sp, #0x20]
1000005e0: a90357f6    	stp	x22, x21, [sp, #0x30]
1000005e4: a9044ff4    	stp	x20, x19, [sp, #0x40]
1000005e8: a9057bfd    	stp	x29, x30, [sp, #0x50]
1000005ec: 910143fd    	add	x29, sp, #0x50
1000005f0: aa0003f5    	mov	x21, x0
1000005f4: 2a0003f8    	mov	w24, w0
1000005f8: d37e7c08    	ubfiz	x8, x0, #2, #32
1000005fc: 91003d16    	add	x22, x8, #0xf
100000600: 927c7ac1    	and	x1, x22, #0x7fffffff0
100000604: 52800200    	mov	w0, #0x10               ; =16
100000608: 9400014a    	bl	0x100000b30 <_strlen+0x100000b30>
10000060c: aa0003f3    	mov	x19, x0
100000610: 34000335    	cbz	w21, 0x100000674 <__Z4testIfEvj+0xa0>
100000614: aa1803f4    	mov	x20, x24
100000618: aa1303f7    	mov	x23, x19
10000061c: 9400014e    	bl	0x100000b54 <_strlen+0x100000b54>
100000620: 1e028400    	scvtf	s0, w0, #0x1f
100000624: bc0046e0    	str	s0, [x23], #0x4
100000628: f1000694    	subs	x20, x20, #0x1
10000062c: 54ffff81    	b.ne	0x10000061c <__Z4testIfEvj+0x48>
100000630: 927c7ac1    	and	x1, x22, #0x7fffffff0
100000634: 52800200    	mov	w0, #0x10               ; =16
100000638: 9400013e    	bl	0x100000b30 <_strlen+0x100000b30>
10000063c: aa0003f4    	mov	x20, x0
100000640: d2800017    	mov	x23, #0x0               ; =0
100000644: d37ef719    	lsl	x25, x24, #2
100000648: 94000143    	bl	0x100000b54 <_strlen+0x100000b54>
10000064c: 1e028400    	scvtf	s0, w0, #0x1f
100000650: bc376a80    	str	s0, [x20, x23]
100000654: 910012f7    	add	x23, x23, #0x4
100000658: eb17033f    	cmp	x25, x23
10000065c: 54ffff61    	b.ne	0x100000648 <__Z4testIfEvj+0x74>
100000660: aa1503f7    	mov	x23, x21
100000664: 9400013c    	bl	0x100000b54 <_strlen+0x100000b54>
100000668: 710006f7    	subs	w23, w23, #0x1
10000066c: 54ffffc1    	b.ne	0x100000664 <__Z4testIfEvj+0x90>
100000670: 14000005    	b	0x100000684 <__Z4testIfEvj+0xb0>
100000674: 927c7ac1    	and	x1, x22, #0x7fffffff0
100000678: 52800200    	mov	w0, #0x10               ; =16
10000067c: 9400012d    	bl	0x100000b30 <_strlen+0x100000b30>
100000680: aa0003f4    	mov	x20, x0
100000684: 927c7ac1    	and	x1, x22, #0x7fffffff0
100000688: 52800200    	mov	w0, #0x10               ; =16
10000068c: 94000129    	bl	0x100000b30 <_strlen+0x100000b30>
100000690: aa0003f7    	mov	x23, x0
100000694: f90007e0    	str	x0, [sp, #0x8]
100000698: 94000114    	bl	0x100000ae8 <_strlen+0x100000ae8>
10000069c: aa0003f6    	mov	x22, x0
1000006a0: 34001955    	cbz	w21, 0x1000009c8 <__Z4testIfEvj+0x3f4>
1000006a4: 710042bf    	cmp	w21, #0x10
1000006a8: 54000068    	b.hi	0x1000006b4 <__Z4testIfEvj+0xe0>
1000006ac: d2800008    	mov	x8, #0x0                ; =0
1000006b0: 1400001f    	b	0x10000072c <__Z4testIfEvj+0x158>
1000006b4: d1000708    	sub	x8, x24, #0x1
1000006b8: d342fd08    	lsr	x8, x8, #2
1000006bc: 91000508    	add	x8, x8, #0x1
1000006c0: f2400509    	ands	x9, x8, #0x3
1000006c4: 5280008a    	mov	w10, #0x4               ; =4
1000006c8: 9a890149    	csel	x9, x10, x9, eq
1000006cc: cb090109    	sub	x9, x8, x9
1000006d0: d37ef528    	lsl	x8, x9, #2
1000006d4: 52908c4a    	mov	w10, #0x8462            ; =33890
1000006d8: 72a7e20a    	movk	w10, #0x3f10, lsl #16
1000006dc: 4e040d40    	dup.4s	v0, w10
1000006e0: 910082ea    	add	x10, x23, #0x20
1000006e4: 529d858b    	mov	w11, #0xec2c            ; =60460
1000006e8: 72a7f14b    	movk	w11, #0x3f8a, lsl #16
1000006ec: 4e040d61    	dup.4s	v1, w11
1000006f0: aa1403eb    	mov	x11, x20
1000006f4: aa1303ec    	mov	x12, x19
1000006f8: 4cdf0982    	ld4.4s	{ v2, v3, v4, v5 }, [x12], #64
1000006fc: 6e21dc42    	fmul.4s	v2, v2, v1
100000700: 4cdf0963    	ld4.4s	{ v3, v4, v5, v6 }, [x11], #64
100000704: 4e20cc62    	fmla.4s	v2, v3, v0
100000708: d100414d    	sub	x13, x10, #0x10
10000070c: 9100414e    	add	x14, x10, #0x10
100000710: bc1e0142    	stur	s2, [x10, #-0x20]
100000714: 0d0091a2    	st1.s	{ v2 }[1], [x13]
100000718: 4d008142    	st1.s	{ v2 }[2], [x10]
10000071c: 4d0091c2    	st1.s	{ v2 }[3], [x14]
100000720: 9101014a    	add	x10, x10, #0x40
100000724: f1001129    	subs	x9, x9, #0x4
100000728: 54fffe81    	b.ne	0x1000006f8 <__Z4testIfEvj+0x124>
10000072c: 52908c49    	mov	w9, #0x8462             ; =33890
100000730: 72a7e209    	movk	w9, #0x3f10, lsl #16
100000734: 1e270120    	fmov	s0, w9
100000738: 529d8589    	mov	w9, #0xec2c             ; =60460
10000073c: 72a7f149    	movk	w9, #0x3f8a, lsl #16
100000740: 1e270121    	fmov	s1, w9
100000744: bc687a62    	ldr	s2, [x19, x8, lsl #2]
100000748: bc687a83    	ldr	s3, [x20, x8, lsl #2]
10000074c: 1e210842    	fmul	s2, s2, s1
100000750: 1f000862    	fmadd	s2, s3, s0, s2
100000754: bc287ae2    	str	s2, [x23, x8, lsl #2]
100000758: 91001108    	add	x8, x8, #0x4
10000075c: eb18011f    	cmp	x8, x24
100000760: 54ffff23    	b.lo	0x100000744 <__Z4testIfEvj+0x170>
100000764: 710006bf    	cmp	w21, #0x1
100000768: 54001300    	b.eq	0x1000009c8 <__Z4testIfEvj+0x3f4>
10000076c: d1000b08    	sub	x8, x24, #0x2
100000770: f100411f    	cmp	x8, #0x10
100000774: 54000062    	b.hs	0x100000780 <__Z4testIfEvj+0x1ac>
100000778: 52800028    	mov	w8, #0x1                ; =1
10000077c: 1400001f    	b	0x1000007f8 <__Z4testIfEvj+0x224>
100000780: d342fd08    	lsr	x8, x8, #2
100000784: 91000508    	add	x8, x8, #0x1
100000788: f2400509    	ands	x9, x8, #0x3
10000078c: 5280008a    	mov	w10, #0x4               ; =4
100000790: 9a890149    	csel	x9, x10, x9, eq
100000794: cb090109    	sub	x9, x8, x9
100000798: 52800028    	mov	w8, #0x1                ; =1
10000079c: aa090908    	orr	x8, x8, x9, lsl #2
1000007a0: 9100126a    	add	x10, x19, #0x4
1000007a4: 9100128b    	add	x11, x20, #0x4
1000007a8: 910092ec    	add	x12, x23, #0x24
1000007ac: 52908c4d    	mov	w13, #0x8462            ; =33890
1000007b0: 72a7e20d    	movk	w13, #0x3f10, lsl #16
1000007b4: 4e040da0    	dup.4s	v0, w13
1000007b8: 529d858d    	mov	w13, #0xec2c            ; =60460
1000007bc: 72a7f14d    	movk	w13, #0x3f8a, lsl #16
1000007c0: 4e040da1    	dup.4s	v1, w13
1000007c4: 4cdf0942    	ld4.4s	{ v2, v3, v4, v5 }, [x10], #64
1000007c8: 6e21dc42    	fmul.4s	v2, v2, v1
1000007cc: 4cdf0963    	ld4.4s	{ v3, v4, v5, v6 }, [x11], #64
1000007d0: 4e20cc62    	fmla.4s	v2, v3, v0
1000007d4: d100418d    	sub	x13, x12, #0x10
1000007d8: 9100418e    	add	x14, x12, #0x10
1000007dc: bc1e0182    	stur	s2, [x12, #-0x20]
1000007e0: 0d0091a2    	st1.s	{ v2 }[1], [x13]
1000007e4: 4d008182    	st1.s	{ v2 }[2], [x12]
1000007e8: 4d0091c2    	st1.s	{ v2 }[3], [x14]
1000007ec: 9101018c    	add	x12, x12, #0x40
1000007f0: f1001129    	subs	x9, x9, #0x4
1000007f4: 54fffe81    	b.ne	0x1000007c4 <__Z4testIfEvj+0x1f0>
1000007f8: 52908c49    	mov	w9, #0x8462             ; =33890
1000007fc: 72a7e209    	movk	w9, #0x3f10, lsl #16
100000800: 1e270120    	fmov	s0, w9
100000804: 529d8589    	mov	w9, #0xec2c             ; =60460
100000808: 72a7f149    	movk	w9, #0x3f8a, lsl #16
10000080c: 1e270121    	fmov	s1, w9
100000810: bc687a62    	ldr	s2, [x19, x8, lsl #2]
100000814: bc687a83    	ldr	s3, [x20, x8, lsl #2]
100000818: 1e210842    	fmul	s2, s2, s1
10000081c: 1f000862    	fmadd	s2, s3, s0, s2
100000820: bc287ae2    	str	s2, [x23, x8, lsl #2]
100000824: 91001108    	add	x8, x8, #0x4
100000828: eb18011f    	cmp	x8, x24
10000082c: 54ffff23    	b.lo	0x100000810 <__Z4testIfEvj+0x23c>
100000830: 71000ebf    	cmp	w21, #0x3
100000834: 54000ca3    	b.lo	0x1000009c8 <__Z4testIfEvj+0x3f4>
100000838: d1000f08    	sub	x8, x24, #0x3
10000083c: f100411f    	cmp	x8, #0x10
100000840: 54000062    	b.hs	0x10000084c <__Z4testIfEvj+0x278>
100000844: 52800048    	mov	w8, #0x2                ; =2
100000848: 1400001f    	b	0x1000008c4 <__Z4testIfEvj+0x2f0>
10000084c: d342fd08    	lsr	x8, x8, #2
100000850: 91000508    	add	x8, x8, #0x1
100000854: f2400509    	ands	x9, x8, #0x3
100000858: 5280008a    	mov	w10, #0x4               ; =4
10000085c: 9a890149    	csel	x9, x10, x9, eq
100000860: cb090109    	sub	x9, x8, x9
100000864: 52800048    	mov	w8, #0x2                ; =2
100000868: aa090908    	orr	x8, x8, x9, lsl #2
10000086c: 9100226a    	add	x10, x19, #0x8
100000870: 9100228b    	add	x11, x20, #0x8
100000874: 9100a2ec    	add	x12, x23, #0x28
100000878: 52908c4d    	mov	w13, #0x8462            ; =33890
10000087c: 72a7e20d    	movk	w13, #0x3f10, lsl #16
100000880: 4e040da0    	dup.4s	v0, w13
100000884: 529d858d    	mov	w13, #0xec2c            ; =60460
100000888: 72a7f14d    	movk	w13, #0x3f8a, lsl #16
10000088c: 4e040da1    	dup.4s	v1, w13
100000890: 4cdf0942    	ld4.4s	{ v2, v3, v4, v5 }, [x10], #64
100000894: 6e21dc42    	fmul.4s	v2, v2, v1
100000898: 4cdf0963    	ld4.4s	{ v3, v4, v5, v6 }, [x11], #64
10000089c: 4e20cc62    	fmla.4s	v2, v3, v0
1000008a0: d100418d    	sub	x13, x12, #0x10
1000008a4: 9100418e    	add	x14, x12, #0x10
1000008a8: bc1e0182    	stur	s2, [x12, #-0x20]
1000008ac: 0d0091a2    	st1.s	{ v2 }[1], [x13]
1000008b0: 4d008182    	st1.s	{ v2 }[2], [x12]
1000008b4: 4d0091c2    	st1.s	{ v2 }[3], [x14]
1000008b8: 9101018c    	add	x12, x12, #0x40
1000008bc: f1001129    	subs	x9, x9, #0x4
1000008c0: 54fffe81    	b.ne	0x100000890 <__Z4testIfEvj+0x2bc>
1000008c4: 52908c49    	mov	w9, #0x8462             ; =33890
1000008c8: 72a7e209    	movk	w9, #0x3f10, lsl #16
1000008cc: 1e270120    	fmov	s0, w9
1000008d0: 529d8589    	mov	w9, #0xec2c             ; =60460
1000008d4: 72a7f149    	movk	w9, #0x3f8a, lsl #16
1000008d8: 1e270121    	fmov	s1, w9
1000008dc: bc687a62    	ldr	s2, [x19, x8, lsl #2]
1000008e0: bc687a83    	ldr	s3, [x20, x8, lsl #2]
1000008e4: 1e210842    	fmul	s2, s2, s1
1000008e8: 1f000862    	fmadd	s2, s3, s0, s2
1000008ec: bc287ae2    	str	s2, [x23, x8, lsl #2]
1000008f0: 91001108    	add	x8, x8, #0x4
1000008f4: eb18011f    	cmp	x8, x24
1000008f8: 54ffff23    	b.lo	0x1000008dc <__Z4testIfEvj+0x308>
1000008fc: 71000ebf    	cmp	w21, #0x3
100000900: 54000640    	b.eq	0x1000009c8 <__Z4testIfEvj+0x3f4>
100000904: d1001308    	sub	x8, x24, #0x4
100000908: f100411f    	cmp	x8, #0x10
10000090c: 54000062    	b.hs	0x100000918 <__Z4testIfEvj+0x344>
100000910: 52800068    	mov	w8, #0x3                ; =3
100000914: 1400001f    	b	0x100000990 <__Z4testIfEvj+0x3bc>
100000918: d342fd08    	lsr	x8, x8, #2
10000091c: 91000508    	add	x8, x8, #0x1
100000920: f2400509    	ands	x9, x8, #0x3
100000924: 5280008a    	mov	w10, #0x4               ; =4
100000928: 9a890149    	csel	x9, x10, x9, eq
10000092c: cb090109    	sub	x9, x8, x9
100000930: 52800068    	mov	w8, #0x3                ; =3
100000934: aa090908    	orr	x8, x8, x9, lsl #2
100000938: 9100326a    	add	x10, x19, #0xc
10000093c: 9100328b    	add	x11, x20, #0xc
100000940: 9100b2ec    	add	x12, x23, #0x2c
100000944: 52908c4d    	mov	w13, #0x8462            ; =33890
100000948: 72a7e20d    	movk	w13, #0x3f10, lsl #16
10000094c: 4e040da0    	dup.4s	v0, w13
100000950: 529d858d    	mov	w13, #0xec2c            ; =60460
100000954: 72a7f14d    	movk	w13, #0x3f8a, lsl #16
100000958: 4e040da1    	dup.4s	v1, w13
10000095c: 4cdf0942    	ld4.4s	{ v2, v3, v4, v5 }, [x10], #64
100000960: 6e21dc42    	fmul.4s	v2, v2, v1
100000964: 4cdf0963    	ld4.4s	{ v3, v4, v5, v6 }, [x11], #64
100000968: 4e20cc62    	fmla.4s	v2, v3, v0
10000096c: d100418d    	sub	x13, x12, #0x10
100000970: 9100418e    	add	x14, x12, #0x10
100000974: bc1e0182    	stur	s2, [x12, #-0x20]
100000978: 0d0091a2    	st1.s	{ v2 }[1], [x13]
10000097c: 4d008182    	st1.s	{ v2 }[2], [x12]
100000980: 4d0091c2    	st1.s	{ v2 }[3], [x14]
100000984: 9101018c    	add	x12, x12, #0x40
100000988: f1001129    	subs	x9, x9, #0x4
10000098c: 54fffe81    	b.ne	0x10000095c <__Z4testIfEvj+0x388>
100000990: 52908c49    	mov	w9, #0x8462             ; =33890
100000994: 72a7e209    	movk	w9, #0x3f10, lsl #16
100000998: 1e270120    	fmov	s0, w9
10000099c: 529d8589    	mov	w9, #0xec2c             ; =60460
1000009a0: 72a7f149    	movk	w9, #0x3f8a, lsl #16
1000009a4: 1e270121    	fmov	s1, w9
1000009a8: bc687a62    	ldr	s2, [x19, x8, lsl #2]
1000009ac: bc687a83    	ldr	s3, [x20, x8, lsl #2]
1000009b0: 1e210842    	fmul	s2, s2, s1
1000009b4: 1f000862    	fmadd	s2, s3, s0, s2
1000009b8: bc287ae2    	str	s2, [x23, x8, lsl #2]
1000009bc: 91001108    	add	x8, x8, #0x4
1000009c0: eb18011f    	cmp	x8, x24
1000009c4: 54ffff23    	b.lo	0x1000009a8 <__Z4testIfEvj+0x3d4>
1000009c8: 94000048    	bl	0x100000ae8 <_strlen+0x100000ae8>
1000009cc: cb160008    	sub	x8, x0, x22
1000009d0: 9e620100    	scvtf	d0, x8
1000009d4: d29ad2a8    	mov	x8, #0xd695             ; =54933
1000009d8: f2bd04c8    	movk	x8, #0xe826, lsl #16
1000009dc: f2c5c168    	movk	x8, #0x2e0b, lsl #32
1000009e0: f2e7c228    	movk	x8, #0x3e11, lsl #48
1000009e4: 9e670101    	fmov	d1, x8
1000009e8: 1e610800    	fmul	d0, d0, d1
1000009ec: 90000020    	adrp	x0, 0x100004000 <_strlen+0x100004000>
1000009f0: f9400c00    	ldr	x0, [x0, #0x18]
1000009f4: 94000037    	bl	0x100000ad0 <_strlen+0x100000ad0>
1000009f8: 910023e8    	add	x8, sp, #0x8
1000009fc: f94007e0    	ldr	x0, [sp, #0x8]
100000a00: 9400004f    	bl	0x100000b3c <_strlen+0x100000b3c>
100000a04: aa1303e0    	mov	x0, x19
100000a08: 9400004d    	bl	0x100000b3c <_strlen+0x100000b3c>
100000a0c: aa1403e0    	mov	x0, x20
100000a10: 9400004b    	bl	0x100000b3c <_strlen+0x100000b3c>
100000a14: a9457bfd    	ldp	x29, x30, [sp, #0x50]
100000a18: a9444ff4    	ldp	x20, x19, [sp, #0x40]
100000a1c: a94357f6    	ldp	x22, x21, [sp, #0x30]
100000a20: a9425ff8    	ldp	x24, x23, [sp, #0x20]
100000a24: a94167fa    	ldp	x26, x25, [sp, #0x10]
100000a28: 910183ff    	add	sp, sp, #0x60
100000a2c: d65f03c0    	ret

0000000100000a30 <__ZNSt3__112basic_stringIcNS_11char_traitsIcEENS_9allocatorIcEEE20__throw_length_errorB8ne200100Ev>:
100000a30: a9bf7bfd    	stp	x29, x30, [sp, #-0x10]!
100000a34: 910003fd    	mov	x29, sp
100000a38: 90000000    	adrp	x0, 0x100000000 <_strlen+0x100000000>
100000a3c: 912e4000    	add	x0, x0, #0xb90
100000a40: 94000001    	bl	0x100000a44 <__ZNSt3__120__throw_length_errorB8ne200100EPKc>

0000000100000a44 <__ZNSt3__120__throw_length_errorB8ne200100EPKc>:
100000a44: a9be4ff4    	stp	x20, x19, [sp, #-0x20]!
100000a48: a9017bfd    	stp	x29, x30, [sp, #0x10]
100000a4c: 910043fd    	add	x29, sp, #0x10
100000a50: aa0003f4    	mov	x20, x0
100000a54: 52800200    	mov	w0, #0x10               ; =16
100000a58: 9400002d    	bl	0x100000b0c <_strlen+0x100000b0c>
100000a5c: aa0003f3    	mov	x19, x0
100000a60: aa1403e1    	mov	x1, x20
100000a64: 9400000c    	bl	0x100000a94 <__ZNSt12length_errorC1B8ne200100EPKc>
100000a68: 90000021    	adrp	x1, 0x100004000 <_strlen+0x100004000>
100000a6c: f9404421    	ldr	x1, [x1, #0x88]
100000a70: 90000022    	adrp	x2, 0x100004000 <_strlen+0x100004000>
100000a74: f9400442    	ldr	x2, [x2, #0x8]
100000a78: aa1303e0    	mov	x0, x19
100000a7c: 9400002a    	bl	0x100000b24 <_strlen+0x100000b24>
100000a80: aa0003f4    	mov	x20, x0
100000a84: aa1303e0    	mov	x0, x19
100000a88: 94000024    	bl	0x100000b18 <_strlen+0x100000b18>
100000a8c: aa1403e0    	mov	x0, x20
100000a90: 9400000a    	bl	0x100000ab8 <_strlen+0x100000ab8>

0000000100000a94 <__ZNSt12length_errorC1B8ne200100EPKc>:
100000a94: a9bf7bfd    	stp	x29, x30, [sp, #-0x10]!
100000a98: 910003fd    	mov	x29, sp
100000a9c: 9400000a    	bl	0x100000ac4 <_strlen+0x100000ac4>
100000aa0: 90000028    	adrp	x8, 0x100004000 <_strlen+0x100004000>
100000aa4: f9401908    	ldr	x8, [x8, #0x30]
100000aa8: 91004108    	add	x8, x8, #0x10
100000aac: f9000008    	str	x8, [x0]
100000ab0: a8c17bfd    	ldp	x29, x30, [sp], #0x10
100000ab4: d65f03c0    	ret

Disassembly of section __TEXT,__stubs:

0000000100000ab8 <__stubs>:
100000ab8: 90000030    	adrp	x16, 0x100004000 <_strlen+0x100004000>
100000abc: f9402e10    	ldr	x16, [x16, #0x58]
100000ac0: d61f0200    	br	x16
100000ac4: 90000030    	adrp	x16, 0x100004000 <_strlen+0x100004000>
100000ac8: f9400210    	ldr	x16, [x16]
100000acc: d61f0200    	br	x16
100000ad0: 90000030    	adrp	x16, 0x100004000 <_strlen+0x100004000>
100000ad4: f9400a10    	ldr	x16, [x16, #0x10]
100000ad8: d61f0200    	br	x16
100000adc: 90000030    	adrp	x16, 0x100004000 <_strlen+0x100004000>
100000ae0: f9401210    	ldr	x16, [x16, #0x20]
100000ae4: d61f0200    	br	x16
100000ae8: 90000030    	adrp	x16, 0x100004000 <_strlen+0x100004000>
100000aec: f9401610    	ldr	x16, [x16, #0x28]
100000af0: d61f0200    	br	x16
100000af4: 90000030    	adrp	x16, 0x100004000 <_strlen+0x100004000>
100000af8: f9404a10    	ldr	x16, [x16, #0x90]
100000afc: d61f0200    	br	x16
100000b00: 90000030    	adrp	x16, 0x100004000 <_strlen+0x100004000>
100000b04: f9404e10    	ldr	x16, [x16, #0x98]
100000b08: d61f0200    	br	x16
100000b0c: 90000030    	adrp	x16, 0x100004000 <_strlen+0x100004000>
100000b10: f9401e10    	ldr	x16, [x16, #0x38]
100000b14: d61f0200    	br	x16
100000b18: 90000030    	adrp	x16, 0x100004000 <_strlen+0x100004000>
100000b1c: f9402210    	ldr	x16, [x16, #0x40]
100000b20: d61f0200    	br	x16
100000b24: 90000030    	adrp	x16, 0x100004000 <_strlen+0x100004000>
100000b28: f9402610    	ldr	x16, [x16, #0x48]
100000b2c: d61f0200    	br	x16
100000b30: 90000030    	adrp	x16, 0x100004000 <_strlen+0x100004000>
100000b34: f9403210    	ldr	x16, [x16, #0x60]
100000b38: d61f0200    	br	x16
100000b3c: 90000030    	adrp	x16, 0x100004000 <_strlen+0x100004000>
100000b40: f9403610    	ldr	x16, [x16, #0x68]
100000b44: d61f0200    	br	x16
100000b48: 90000030    	adrp	x16, 0x100004000 <_strlen+0x100004000>
100000b4c: f9403a10    	ldr	x16, [x16, #0x70]
100000b50: d61f0200    	br	x16
100000b54: 90000030    	adrp	x16, 0x100004000 <_strlen+0x100004000>
100000b58: f9403e10    	ldr	x16, [x16, #0x78]
100000b5c: d61f0200    	br	x16
100000b60: 90000030    	adrp	x16, 0x100004000 <_strlen+0x100004000>
100000b64: f9404210    	ldr	x16, [x16, #0x80]
100000b68: d61f0200    	br	x16
